
Discarded input sections

 .data          0x00000000        0x0 arch/powerpc/cpu/74xx_7xx/start.o
 .bss           0x00000000        0x0 arch/powerpc/cpu/74xx_7xx/start.o
 .text.addr_probe
                0x00000000        0x8 arch/powerpc/cpu/74xx_7xx/lib74xx_7xx.o
 .text.checkicache
                0x00000000        0x8 arch/powerpc/cpu/74xx_7xx/lib74xx_7xx.o
 .text.checkdcache
                0x00000000        0x8 arch/powerpc/cpu/74xx_7xx/lib74xx_7xx.o
 .text.do_irqinfo
                0x00000000       0x28 arch/powerpc/cpu/74xx_7xx/lib74xx_7xx.o
 .rodata.do_irqinfo.str1.1
                0x00000000       0x34 arch/powerpc/cpu/74xx_7xx/lib74xx_7xx.o
 .eh_frame      0x00000000      0x35c arch/powerpc/cpu/74xx_7xx/lib74xx_7xx.o
 .data          0x00000000        0x0 arch/powerpc/cpu/74xx_7xx/lib74xx_7xx.o
 .bss           0x00000000        0x0 arch/powerpc/cpu/74xx_7xx/lib74xx_7xx.o
 .sbss.timestamp
                0x00000000        0x4 arch/powerpc/cpu/74xx_7xx/lib74xx_7xx.o
 .text.__ft_verify_fdt
                0x00000000        0x8 arch/powerpc/lib/libpowerpc.o
 .text.ticks2usec
                0x00000000       0x2c arch/powerpc/lib/libpowerpc.o
 .eh_frame      0x00000000      0x3cc arch/powerpc/lib/libpowerpc.o
 .fixup         0x00000000       0x28 arch/powerpc/lib/libpowerpc.o
 .data          0x00000000        0x0 arch/powerpc/lib/libpowerpc.o
 .sdata.ex_tab_message
                0x00000000        0x4 arch/powerpc/lib/libpowerpc.o
 .bss           0x00000000        0x0 arch/powerpc/lib/libpowerpc.o
 .text          0x00000000        0x0 common/libcommon.o
 .text.ide_get_dev
                0x00000000       0x40 common/libcommon.o
 .text.setenv_ulong
                0x00000000       0x38 common/libcommon.o
 .text.setenv_addr
                0x00000000       0x48 common/libcommon.o
 .text.scsi_get_dev
                0x00000000       0x40 common/libcommon.o
 .text.scsi_trim_trail
                0x00000000       0x30 common/libcommon.o
 .text.scsi_setup_read6
                0x00000000       0x40 common/libcommon.o
 .text.serial_printf
                0x00000000       0x9c common/libcommon.o
 .text.fprintf  0x00000000       0x9c common/libcommon.o
 .text.disable_ctrlc
                0x00000000       0x34 common/libcommon.o
 .text.dbg      0x00000000        0x4 common/libcommon.o
 .text.realloc  0x00000000      0x50c common/libcommon.o
 .text.memalign
                0x00000000      0x13c common/libcommon.o
 .text.valloc   0x00000000        0xc common/libcommon.o
 .text.pvalloc  0x00000000       0x10 common/libcommon.o
 .text.cfree    0x00000000        0x4 common/libcommon.o
 .text.malloc_usable_size
                0x00000000       0x44 common/libcommon.o
 .text.mallopt  0x00000000       0x74 common/libcommon.o
 .text.__env_get_char_spec
                0x00000000        0xc common/libcommon.o
 .text.ld_le16  0x00000000        0x8 common/libcommon.o
 .text.st_le16  0x00000000        0x8 common/libcommon.o
 .text.ld_le32  0x00000000        0x8 common/libcommon.o
 .text.st_le32  0x00000000        0x8 common/libcommon.o
 .text.get_table_entry_id
                0x00000000       0x5c common/libcommon.o
 .text.genimg_get_os_id
                0x00000000       0x30 common/libcommon.o
 .text.genimg_get_arch_id
                0x00000000       0x30 common/libcommon.o
 .text.genimg_get_type_id
                0x00000000       0x30 common/libcommon.o
 .text.genimg_get_comp_id
                0x00000000       0x30 common/libcommon.o
 .text.get_ram_size
                0x00000000      0x140 common/libcommon.o
 .rodata.setenv_addr.str1.1
                0x00000000        0x4 common/libcommon.o
 .rodata.version_string
                0x00000000       0x28 common/libcommon.o
 .rodata.genimg_get_os_id.str1.1
                0x00000000        0x3 common/libcommon.o
 .rodata.genimg_get_arch_id.str1.1
                0x00000000        0x4 common/libcommon.o
 .rodata.genimg_get_type_id.str1.1
                0x00000000        0x6 common/libcommon.o
 .rodata.genimg_get_comp_id.str1.1
                0x00000000        0xc common/libcommon.o
 .eh_frame      0x00000000     0x3178 common/libcommon.o
 .fixup         0x00000000      0xa50 common/libcommon.o
 .data          0x00000000        0x0 common/libcommon.o
 .sdata.ShortPCIListing
                0x00000000        0x1 common/libcommon.o
 .bss           0x00000000        0x0 common/libcommon.o
 .sbss.save_size
                0x00000000        0x4 common/libcommon.o
 .sbss.save_addr
                0x00000000        0x4 common/libcommon.o
 .sbss.env_ptr  0x00000000        0x4 common/libcommon.o
 .text          0x00000000        0x0 disk/libdisk.o
 .text.get_dev  0x00000000       0xa0 disk/libdisk.o
 .rodata.str1.1
                0x00000000        0x9 disk/libdisk.o
 .eh_frame      0x00000000      0x454 disk/libdisk.o
 .fixup         0x00000000       0x10 disk/libdisk.o
 .data          0x00000000        0x0 disk/libdisk.o
 .data.rel.ro.block_drvr
                0x00000000       0x18 disk/libdisk.o
 .bss           0x00000000        0x0 disk/libdisk.o
 .text          0x00000000        0x0 drivers/block/libblock.o
 .text.scsi_print_script
                0x00000000       0xc8 drivers/block/libblock.o
 .rodata.scsi_print_script.str1.1
                0x00000000      0x14a drivers/block/libblock.o
 .eh_frame      0x00000000      0x2bc drivers/block/libblock.o
 .data          0x00000000        0x0 drivers/block/libblock.o
 .bss           0x00000000        0x0 drivers/block/libblock.o
 .text          0x00000000        0x0 drivers/input/libinput.o
 .text.input_queue_ascii
                0x00000000       0x48 drivers/input/libinput.o
 .text.input_tstc
                0x00000000       0x60 drivers/input/libinput.o
 .text.input_getc
                0x00000000       0x6c drivers/input/libinput.o
 .text.input_send_keycodes
                0x00000000      0x324 drivers/input/libinput.o
 .text.input_add_table
                0x00000000       0x40 drivers/input/libinput.o
 .text.input_init
                0x00000000       0xb0 drivers/input/libinput.o
 .text.input_stdio_register
                0x00000000       0x64 drivers/input/libinput.o
 .rodata.input_stdio_register.str1.1
                0x00000000        0x6 drivers/input/libinput.o
 .rodata.kbd_plain_xlate
                0x00000000       0x63 drivers/input/libinput.o
 .eh_frame      0x00000000      0x124 drivers/input/libinput.o
 .data          0x00000000        0x0 drivers/input/libinput.o
 .data.kbd_ctrl_xlate
                0x00000000       0x63 drivers/input/libinput.o
 .data.kbd_shift_xlate
                0x00000000       0x63 drivers/input/libinput.o
 .bss           0x00000000        0x0 drivers/input/libinput.o
 .comment       0x00000000       0x19 drivers/input/libinput.o
 .debug_aranges
                0x00000000       0x50 drivers/input/libinput.o
 .debug_info    0x00000000      0xdc3 drivers/input/libinput.o
 .debug_abbrev  0x00000000      0x3a7 drivers/input/libinput.o
 .debug_line    0x00000000      0x6f7 drivers/input/libinput.o
 .debug_str     0x00000000      0x563 drivers/input/libinput.o
 .debug_loclists
                0x00000000      0x7cf drivers/input/libinput.o
 .debug_rnglists
                0x00000000       0xb8 drivers/input/libinput.o
 .text          0x00000000        0x0 drivers/misc/libmisc.o
 .eh_frame      0x00000000       0x48 drivers/misc/libmisc.o
 .data          0x00000000        0x0 drivers/misc/libmisc.o
 .bss           0x00000000        0x0 drivers/misc/libmisc.o
 .text          0x00000000        0x0 drivers/net/libnet.o
 .eh_frame      0x00000000      0x1c4 drivers/net/libnet.o
 .data          0x00000000        0x0 drivers/net/libnet.o
 .bss           0x00000000        0x0 drivers/net/libnet.o
 .text          0x00000000        0x0 drivers/pci/libpci.o
 .text.pci_hose_read_config_byte_via_dword
                0x00000000       0x54 drivers/pci/libpci.o
 .text.pci_hose_read_config_word_via_dword
                0x00000000       0x54 drivers/pci/libpci.o
 .text.pci_hose_write_config_byte_via_dword
                0x00000000       0x7c drivers/pci/libpci.o
 .text.pci_hose_write_config_word_via_dword
                0x00000000       0x80 drivers/pci/libpci.o
 .text.find_hose_by_cfg_addr
                0x00000000       0x4c drivers/pci/libpci.o
 .text.pci_last_busno
                0x00000000       0x4c drivers/pci/libpci.o
 .text.pci_map_bar
                0x00000000       0x48 drivers/pci/libpci.o
 .text.pci_hose_config_device
                0x00000000      0x1c4 drivers/pci/libpci.o
 .text.pci_cfgfunc_config_device
                0x00000000       0x10 drivers/pci/libpci.o
 .text.pci_cfgfunc_do_nothing
                0x00000000        0x4 drivers/pci/libpci.o
 .eh_frame      0x00000000      0x824 drivers/pci/libpci.o
 .data          0x00000000        0x0 drivers/pci/libpci.o
 .bss           0x00000000        0x0 drivers/pci/libpci.o
 .text          0x00000000        0x0 drivers/pcmcia/libpcmcia.o
 .data          0x00000000        0x0 drivers/pcmcia/libpcmcia.o
 .bss           0x00000000        0x0 drivers/pcmcia/libpcmcia.o
 .comment       0x00000000       0x32 drivers/pcmcia/libpcmcia.o
 .debug_aranges
                0x00000000       0x30 drivers/pcmcia/libpcmcia.o
 .debug_info    0x00000000       0xe6 drivers/pcmcia/libpcmcia.o
 .debug_abbrev  0x00000000       0x4c drivers/pcmcia/libpcmcia.o
 .debug_line    0x00000000       0x5d drivers/pcmcia/libpcmcia.o
 .debug_str     0x00000000      0x379 drivers/pcmcia/libpcmcia.o
 .text          0x00000000        0x0 drivers/rtc/librtc.o
 .text.mktime   0x00000000       0x6c drivers/rtc/librtc.o
 .eh_frame      0x00000000      0x1d0 drivers/rtc/librtc.o
 .data          0x00000000        0x0 drivers/rtc/librtc.o
 .bss           0x00000000        0x0 drivers/rtc/librtc.o
 .text          0x00000000        0x0 drivers/serial/libserial.o
 .text._serial_putc_raw
                0x00000000       0x38 drivers/serial/libserial.o
 .text.serial_putc_raw
                0x00000000        0x8 drivers/serial/libserial.o
 .eh_frame      0x00000000      0x224 drivers/serial/libserial.o
 .data          0x00000000        0x0 drivers/serial/libserial.o
 .bss           0x00000000        0x0 drivers/serial/libserial.o
 .text          0x00000000        0x0 fs/jffs2/libjffs2.o
 .eh_frame      0x00000000      0x528 fs/jffs2/libjffs2.o
 .fixup         0x00000000       0x1c fs/jffs2/libjffs2.o
 .data          0x00000000        0x0 fs/jffs2/libjffs2.o
 .bss           0x00000000        0x0 fs/jffs2/libjffs2.o
 .text          0x00000000        0x0 lib/libgeneric.o
 .text.crc7     0x00000000       0x50 lib/libgeneric.o
 .text.hstrstr_r
                0x00000000       0xb8 lib/libgeneric.o
 .text.hmatch_r
                0x00000000       0xa4 lib/libgeneric.o
 .text.lmb_dump_all
                0x00000000        0x4 lib/libgeneric.o
 .text.lmb_free
                0x00000000       0xf4 lib/libgeneric.o
 .text.lmb_is_reserved
                0x00000000       0x4c lib/libgeneric.o
 .text.__arch_lmb_reserve
                0x00000000        0x4 lib/libgeneric.o
 .text.strcmp_compar
                0x00000000        0xc lib/libgeneric.o
 .text.strncat  0x00000000       0x54 lib/libgeneric.o
 .text.strrchr  0x00000000       0x48 lib/libgeneric.o
 .text.skip_spaces
                0x00000000       0x40 lib/libgeneric.o
 .text.strim    0x00000000       0x6c lib/libgeneric.o
 .text.strspn   0x00000000       0x3c lib/libgeneric.o
 .text.strpbrk  0x00000000       0x38 lib/libgeneric.o
 .text.strtok   0x00000000       0x94 lib/libgeneric.o
 .text.strsep   0x00000000       0x4c lib/libgeneric.o
 .text.strswab  0x00000000       0x50 lib/libgeneric.o
 .text.memscan  0x00000000       0x24 lib/libgeneric.o
 .text.mdelay   0x00000000       0x34 lib/libgeneric.o
 .text.ustrtoul
                0x00000000       0x88 lib/libgeneric.o
 .text.__assert_fail
                0x00000000       0x28 lib/libgeneric.o
 .text.simple_itoa
                0x00000000       0x68 lib/libgeneric.o
 .rodata.crc7_syndrome_table
                0x00000000      0x100 lib/libgeneric.o
 .rodata.__assert_fail.str1.1
                0x00000000       0x22 lib/libgeneric.o
 .eh_frame      0x00000000      0xbc4 lib/libgeneric.o
 .data          0x00000000        0x0 lib/libgeneric.o
 .bss           0x00000000        0x0 lib/libgeneric.o
 .sbss.___strtok
                0x00000000        0x4 lib/libgeneric.o
 .bss.local.0   0x00000000       0x16 lib/libgeneric.o
 .text          0x00000000        0x0 lib/zlib/libz.o
 .text.inflateInit_
                0x00000000       0x10 lib/zlib/libz.o
 .rodata.str1.1
                0x00000000       0x75 lib/zlib/libz.o
 .eh_frame      0x00000000      0x210 lib/zlib/libz.o
 .fixup         0x00000000       0x28 lib/zlib/libz.o
 .data          0x00000000        0x0 lib/zlib/libz.o
 .data.rel.ro.local.z_errmsg
                0x00000000       0x28 lib/zlib/libz.o
 .bss           0x00000000        0x0 lib/zlib/libz.o
 .text          0x00000000        0x0 net/libnet.o
 .text.eth_setenv_enetaddr
                0x00000000       0x48 net/libnet.o
 .text.eth_get_dev_by_name
                0x00000000       0x8c net/libnet.o
 .text.eth_get_dev_by_index
                0x00000000       0x58 net/libnet.o
 .text.eth_unregister
                0x00000000       0xb4 net/libnet.o
 .text.net_get_udp_handler
                0x00000000       0x2c net/libnet.o
 .text.random_port
                0x00000000       0x2c net/libnet.o
 .text.VLAN_to_string
                0x00000000       0x5c net/libnet.o
 .rodata.eth_setenv_enetaddr.str1.1
                0x00000000        0x4 net/libnet.o
 .rodata.eth_get_dev_by_name.str1.1
                0x00000000       0x28 net/libnet.o
 .rodata.__FUNCTION__.0
                0x00000000       0x14 net/libnet.o
 .rodata.VLAN_to_string.str1.1
                0x00000000        0x8 net/libnet.o
 .eh_frame      0x00000000      0xf38 net/libnet.o
 .data          0x00000000        0x0 net/libnet.o
 .sdata.TftpRRQTimeoutMSecs
                0x00000000        0x4 net/libnet.o
 .bss           0x00000000        0x0 net/libnet.o
 .text.checkflash
                0x00000000       0x3c board/eltec/bab7xx/libbab7xx.o
 .text.dc_srom_load
                0x00000000      0x13c board/eltec/bab7xx/libbab7xx.o
 .rodata.checkflash.str1.1
                0x00000000       0x25 board/eltec/bab7xx/libbab7xx.o
 .eh_frame      0x00000000      0x6a4 board/eltec/bab7xx/libbab7xx.o
 .data          0x00000000        0x0 board/eltec/bab7xx/libbab7xx.o
 .bss           0x00000000        0x0 board/eltec/bab7xx/libbab7xx.o
 .text.__divdi3
                0x00000000      0x4b0 /Users/ilyabot/Documents/Projects/bab750-experiments/u-boot-lab/arch/powerpc/lib/libgcc.o
 .rodata.__clz_tab
                0x00000000      0x100 /Users/ilyabot/Documents/Projects/bab750-experiments/u-boot-lab/arch/powerpc/lib/libgcc.o
 .eh_frame      0x00000000       0x40 /Users/ilyabot/Documents/Projects/bab750-experiments/u-boot-lab/arch/powerpc/lib/libgcc.o
 .data          0x00000000        0x0 /Users/ilyabot/Documents/Projects/bab750-experiments/u-boot-lab/arch/powerpc/lib/libgcc.o
 .bss           0x00000000        0x0 /Users/ilyabot/Documents/Projects/bab750-experiments/u-boot-lab/arch/powerpc/lib/libgcc.o

Memory Configuration

Name             Origin             Length             Attributes
*default*        0x00000000         0xffffffff

Linker script and memory map

                0xfff00054                        . = (0xfff00000 + SIZEOF_HEADERS)

.interp
 *(.interp)

.hash
 *(.hash)

.dynsym
 *(.dynsym)

.dynstr
 *(.dynstr)

.rela.dyn       0xfff00054        0x0
 .rela.iplt     0xfff00054        0x0 arch/powerpc/cpu/74xx_7xx/start.o

.rel.text
 *(.rel.text)

.rela.text
 *(.rela.text)

.rel.data
 *(.rel.data)

.rela.data
 *(.rela.data)

.rel.rodata
 *(.rel.rodata)

.rela.rodata
 *(.rela.rodata)

.rel.got
 *(.rel.got)

.rela.got       0xfff00054        0x0
 *(.rela.got)
 .rela.got      0xfff00054        0x0 arch/powerpc/cpu/74xx_7xx/start.o

.rel.ctors
 *(.rel.ctors)

.rela.ctors
 *(.rela.ctors)

.rel.dtors
 *(.rel.dtors)

.rela.dtors
 *(.rela.dtors)

.rel.bss
 *(.rel.bss)

.rela.bss
 *(.rela.bss)

.rel.plt
 *(.rel.plt)

.rela.plt
 *(.rela.plt)

.init
 *(.init)

.plt
 *(.plt)

.text           0xfff00000     0x3c7c
 arch/powerpc/cpu/74xx_7xx/start.o(.text)
 .text          0xfff00000     0x2590 arch/powerpc/cpu/74xx_7xx/start.o
                0xfff00004                version_string
                0xfff00100                _start
                0xfff00104                _start_of_vectors
                0xfff01fa4                _end_of_vectors
                0xfff0206c                invalidate_bats
                0xfff0209c                setup_bats
                0xfff021a4                enable_addr_trans
                0xfff021b8                disable_addr_trans
                0xfff021d8                transfer_to_handler
                0xfff02354                dc_read
                0xfff02358                get_pvr
                0xfff02360                relocate_code
                0xfff024d4                trap_init
 *(.text)
 .text          0xfff02590      0x414 arch/powerpc/cpu/74xx_7xx/lib74xx_7xx.o
                0xfff02590                invalidate_l1_instruction_cache
                0xfff025b4                invalidate_l1_data_cache
                0xfff025c8                flush_dcache
                0xfff025ec                flush_icache_range
                0xfff02648                clean_dcache_range
                0xfff0267c                flush_dcache_range
                0xfff026b0                invalidate_dcache_range
                0xfff026e4                __flush_page_to_ram
                0xfff02730                __flush_icache_page
                0xfff02760                clear_page
                0xfff02778                icache_enable
                0xfff0279c                icache_disable
                0xfff027c8                icache_status
                0xfff027d4                l1dcache_enable
                0xfff027fc                dcache_enable
                0xfff02824                dcache_disable
                0xfff02858                dcache_status
                0xfff02864                l2cache_invalidate
                0xfff028e4                l2cache_enable
                0xfff02908                l2cache_disable
                0xfff0292c                in8
                0xfff02938                in16
                0xfff02944                in16r
                0xfff02950                in32
                0xfff0295c                in32r
                0xfff02968                out8
                0xfff02974                out16
                0xfff02980                out16r
                0xfff0298c                out32
                0xfff02998                out32r
 .text          0xfff029a4      0x328 arch/powerpc/lib/libpowerpc.o
                0xfff029a4                ppcDcbf
                0xfff029ac                ppcDcbi
                0xfff029b4                ppcDcbz
                0xfff029bc                ppcSync
                0xfff029c4                strcpy
                0xfff029e0                strncpy
                0xfff02a08                strcat
                0xfff02a34                strcmp
                0xfff02a58                strlen
                0xfff02a70                memset
                0xfff02acc                bcopy
                0xfff02adc                memmove
                0xfff02ae4                memcpy
                0xfff02b80                backwards_memcpy
                0xfff02c08                memcmp
                0xfff02c38                memchr
                0xfff02c60                get_ticks
                0xfff02c78                wait_ticks
                0xfff02ca4                trap_reloc
 *fill*         0xfff02ccc        0x4 
 .text          0xfff02cd0      0xee0 board/eltec/bab7xx/libbab7xx.o
                0xfff02cd0                board_asm_init
                0xfff0368c                Printf
                0xfff036d4                OutHex
                0xfff03720                OutDec
                0xfff037d4                OutChr
                0xfff03aa8                MessageBlock
 .text          0xfff03bb0       0xcc /Users/ilyabot/Documents/Projects/bab750-experiments/u-boot-lab/arch/powerpc/lib/libgcc.o
                0xfff03bb0                __ashldi3
                0xfff03bd4                __ashrdi3
                0xfff03c00                __lshrdi3
                0xfff03c24                _restgpr_14_x
                0xfff03c28                _restgpr_15_x
                0xfff03c2c                _restgpr_16_x
                0xfff03c30                _restgpr_17_x
                0xfff03c34                _restgpr_18_x
                0xfff03c38                _restgpr_19_x
                0xfff03c3c                _restgpr_20_x
                0xfff03c40                _restgpr_21_x
                0xfff03c44                _restgpr_22_x
                0xfff03c48                _restgpr_23_x
                0xfff03c4c                _restgpr_24_x
                0xfff03c50                _restgpr_25_x
                0xfff03c54                _restgpr_26_x
                0xfff03c58                _restgpr_27_x
                0xfff03c5c                _restgpr_28_x
                0xfff03c60                _restgpr_29_x
                0xfff03c64                _restgpr_30_x
                0xfff03c68                _restgpr_31_x
 *(.got1)
                0xfff03c7c                        _etext = .
                [!provide]                        PROVIDE (etext = .)

.glink          0xfff03c7c        0x0
 .glink         0xfff03c7c        0x0 arch/powerpc/cpu/74xx_7xx/start.o

.text.print_backtrace
                0xfff03c7c       0xe4
 .text.print_backtrace
                0xfff03c7c       0xe4 arch/powerpc/cpu/74xx_7xx/lib74xx_7xx.o
                0xfff03c7c                print_backtrace

.text.show_regs
                0xfff03d60       0xe0
 .text.show_regs
                0xfff03d60       0xe0 arch/powerpc/cpu/74xx_7xx/lib74xx_7xx.o
                0xfff03d60                show_regs

.text._exception
                0xfff03e40       0x44
 .text._exception
                0xfff03e40       0x44 arch/powerpc/cpu/74xx_7xx/lib74xx_7xx.o
                0xfff03e40                _exception

.text.MachineCheckException
                0xfff03e84       0xdc
 .text.MachineCheckException
                0xfff03e84       0xdc arch/powerpc/cpu/74xx_7xx/lib74xx_7xx.o
                0xfff03e84                MachineCheckException

.text.AlignmentException
                0xfff03f60       0x34
 .text.AlignmentException
                0xfff03f60       0x34 arch/powerpc/cpu/74xx_7xx/lib74xx_7xx.o
                0xfff03f60                AlignmentException

.text.ProgramCheckException
                0xfff03f94       0xb8
 .text.ProgramCheckException
                0xfff03f94       0xb8 arch/powerpc/cpu/74xx_7xx/lib74xx_7xx.o
                0xfff03f94                ProgramCheckException

.text.SoftEmuException
                0xfff0404c       0x34
 .text.SoftEmuException
                0xfff0404c       0x34 arch/powerpc/cpu/74xx_7xx/lib74xx_7xx.o
                0xfff0404c                SoftEmuException

.text.UnknownException
                0xfff04080       0x54
 .text.UnknownException
                0xfff04080       0x54 arch/powerpc/cpu/74xx_7xx/lib74xx_7xx.o
                0xfff04080                UnknownException

.text.get_cpu_type
                0xfff040d4      0x11c
 .text.get_cpu_type
                0xfff040d4      0x11c arch/powerpc/cpu/74xx_7xx/lib74xx_7xx.o
                0xfff040d4                get_cpu_type

.text.get_tbclk
                0xfff041f0       0x24
 .text.get_tbclk
                0xfff041f0       0x24 arch/powerpc/cpu/74xx_7xx/lib74xx_7xx.o
                0xfff041f0                get_tbclk

.text.cpu_init_f
                0xfff04214       0x38
 .text.cpu_init_f
                0xfff04214       0x38 arch/powerpc/cpu/74xx_7xx/lib74xx_7xx.o
                0xfff04214                cpu_init_f

.text.cpu_init_r
                0xfff0424c        0x8
 .text.cpu_init_r
                0xfff0424c        0x8 arch/powerpc/cpu/74xx_7xx/lib74xx_7xx.o
                0xfff0424c                cpu_init_r

.text.get_clocks
                0xfff04254       0xcc
 .text.get_clocks
                0xfff04254       0xcc arch/powerpc/cpu/74xx_7xx/lib74xx_7xx.o
                0xfff04254                get_clocks

.text.interrupt_init_cpu
                0xfff04320       0x30
 .text.interrupt_init_cpu
                0xfff04320       0x30 arch/powerpc/cpu/74xx_7xx/lib74xx_7xx.o
                0xfff04320                interrupt_init_cpu

.text.external_interrupt
                0xfff04350       0x28
 .text.external_interrupt
                0xfff04350       0x28 arch/powerpc/cpu/74xx_7xx/lib74xx_7xx.o
                0xfff04350                external_interrupt

.text.timer_interrupt_cpu
                0xfff04378        0x4
 .text.timer_interrupt_cpu
                0xfff04378        0x4 arch/powerpc/cpu/74xx_7xx/lib74xx_7xx.o
                0xfff04378                timer_interrupt_cpu

.text.irq_install_handler
                0xfff0437c        0x4
 .text.irq_install_handler
                0xfff0437c        0x4 arch/powerpc/cpu/74xx_7xx/lib74xx_7xx.o
                0xfff0437c                irq_install_handler

.text.irq_free_handler
                0xfff04380        0x4
 .text.irq_free_handler
                0xfff04380        0x4 arch/powerpc/cpu/74xx_7xx/lib74xx_7xx.o
                0xfff04380                irq_free_handler

.text.init_baudrate
                0xfff04384       0x3c
 .text.init_baudrate
                0xfff04384       0x3c arch/powerpc/lib/libpowerpc.o

.text.__board_add_ram_info
                0xfff043c0        0x4
 .text.__board_add_ram_info
                0xfff043c0        0x4 arch/powerpc/lib/libpowerpc.o
                0xfff043c0                __board_add_ram_info
                0xfff043c0                board_add_ram_info

.text.init_func_ram
                0xfff043c4       0x78
 .text.init_func_ram
                0xfff043c4       0x78 arch/powerpc/lib/libpowerpc.o

.text.__board_flash_wp_on
                0xfff0443c        0x8
 .text.__board_flash_wp_on
                0xfff0443c        0x8 arch/powerpc/lib/libpowerpc.o
                0xfff0443c                __board_flash_wp_on
                0xfff0443c                board_flash_wp_on

.text.__cpu_secondary_init_r
                0xfff04444        0x4
 .text.__cpu_secondary_init_r
                0xfff04444        0x4 arch/powerpc/lib/libpowerpc.o
                0xfff04444                cpu_secondary_init_r
                0xfff04444                __cpu_secondary_init_r

.text.get_effective_memsize
                0xfff04448        0x8
 .text.get_effective_memsize
                0xfff04448        0x8 arch/powerpc/lib/libpowerpc.o
                0xfff04448                get_effective_memsize

.text.hang      0xfff04450       0x2c
 .text.hang     0xfff04450       0x2c arch/powerpc/lib/libpowerpc.o
                0xfff04450                hang

.text.board_init_f
                0xfff0447c       0xf0
 .text.board_init_f
                0xfff0447c       0xf0 arch/powerpc/lib/libpowerpc.o
                0xfff0447c                board_init_f

.text.board_init_r
                0xfff0456c      0x14c
 .text.board_init_r
                0xfff0456c      0x14c arch/powerpc/lib/libpowerpc.o
                0xfff0456c                board_init_r

.text.boot_cmdline_linux
                0xfff046b8       0x54
 .text.boot_cmdline_linux
                0xfff046b8       0x54 arch/powerpc/lib/libpowerpc.o

.text.boot_bd_t_linux
                0xfff0470c       0x90
 .text.boot_bd_t_linux
                0xfff0470c       0x90 arch/powerpc/lib/libpowerpc.o

.text.boot_jump_linux
                0xfff0479c       0x58
 .text.boot_jump_linux
                0xfff0479c       0x58 arch/powerpc/lib/libpowerpc.o

.text.arch_lmb_reserve
                0xfff047f4       0xb8
 .text.arch_lmb_reserve
                0xfff047f4       0xb8 arch/powerpc/lib/libpowerpc.o
                0xfff047f4                arch_lmb_reserve

.text.do_bootm_linux
                0xfff048ac       0xb0
 .text.do_bootm_linux
                0xfff048ac       0xb0 arch/powerpc/lib/libpowerpc.o
                0xfff048ac                do_bootm_linux

.text.flush_cache
                0xfff0495c       0x5c
 .text.flush_cache
                0xfff0495c       0x5c arch/powerpc/lib/libpowerpc.o
                0xfff0495c                flush_cache

.text.search_exception_table
                0xfff049b8       0x58
 .text.search_exception_table
                0xfff049b8       0x58 arch/powerpc/lib/libpowerpc.o
                0xfff049b8                search_exception_table

.text.enable_interrupts
                0xfff04a10       0x10
 .text.enable_interrupts
                0xfff04a10       0x10 arch/powerpc/lib/libpowerpc.o
                0xfff04a10                enable_interrupts

.text.disable_interrupts
                0xfff04a20       0x14
 .text.disable_interrupts
                0xfff04a20       0x14 arch/powerpc/lib/libpowerpc.o
                0xfff04a20                disable_interrupts

.text.interrupt_init
                0xfff04a34       0x50
 .text.interrupt_init
                0xfff04a34       0x50 arch/powerpc/lib/libpowerpc.o
                0xfff04a34                interrupt_init

.text.timer_interrupt
                0xfff04a84       0x54
 .text.timer_interrupt
                0xfff04a84       0x54 arch/powerpc/lib/libpowerpc.o
                0xfff04a84                timer_interrupt

.text.get_timer
                0xfff04ad8       0x30
 .text.get_timer
                0xfff04ad8       0x30 arch/powerpc/lib/libpowerpc.o
                0xfff04ad8                get_timer

.text.usec2ticks
                0xfff04b08       0x5c
 .text.usec2ticks
                0xfff04b08       0x5c arch/powerpc/lib/libpowerpc.o
                0xfff04b08                usec2ticks

.text.__udelay  0xfff04b64       0x20
 .text.__udelay
                0xfff04b64       0x20 arch/powerpc/lib/libpowerpc.o
                0xfff04b64                __udelay

.text.init_timebase
                0xfff04b84       0x14
 .text.init_timebase
                0xfff04b84       0x14 arch/powerpc/lib/libpowerpc.o
                0xfff04b84                init_timebase

.text.print_num
                0xfff04b98       0x34
 .text.print_num
                0xfff04b98       0x34 common/libcommon.o

.text.do_bdinfo
                0xfff04bcc      0x140
 .text.do_bdinfo
                0xfff04bcc      0x140 common/libcommon.o
                0xfff04bcc                do_bdinfo

.text.do_go_exec
                0xfff04d0c       0x10
 .text.do_go_exec
                0xfff04d0c       0x10 common/libcommon.o
                0xfff04d0c                do_go_exec

.text.do_go     0xfff04d1c       0x84
 .text.do_go    0xfff04d1c       0x84 common/libcommon.o
                0xfff04d1c                do_go

.text.do_bootm_netbsd
                0xfff04da0      0x140
 .text.do_bootm_netbsd
                0xfff04da0      0x140 common/libcommon.o

.text.image_info
                0xfff04ee0       0xbc
 .text.image_info
                0xfff04ee0       0xbc common/libcommon.o

.text.do_imls   0xfff04f9c       0xd4
 .text.do_imls  0xfff04f9c       0xd4 common/libcommon.o

.text.do_bootd  0xfff05070       0x38
 .text.do_bootd
                0xfff05070       0x38 common/libcommon.o
                0xfff05070                do_bootd

.text.do_iminfo
                0xfff050a8       0x80
 .text.do_iminfo
                0xfff050a8       0x80 common/libcommon.o
                0xfff050a8                do_iminfo

.text.do_bootm_vxworks
                0xfff05128       0x6c
 .text.do_bootm_vxworks
                0xfff05128       0x6c common/libcommon.o

.text.do_bootm_qnxelf
                0xfff05194       0x70
 .text.do_bootm_qnxelf
                0xfff05194       0x70 common/libcommon.o

.text.do_bootm_rtems
                0xfff05204       0x5c
 .text.do_bootm_rtems
                0xfff05204       0x5c common/libcommon.o

.text.bootm_load_os.isra.0
                0xfff05260      0x170
 .text.bootm_load_os.isra.0
                0xfff05260      0x170 common/libcommon.o

.text.bootm_start.isra.0
                0xfff053d0      0x358
 .text.bootm_start.isra.0
                0xfff053d0      0x358 common/libcommon.o

.text.__arch_preboot_os
                0xfff05728        0x4
 .text.__arch_preboot_os
                0xfff05728        0x4 common/libcommon.o
                0xfff05728                arch_preboot_os
                0xfff05728                __arch_preboot_os

.text.do_bootm_subcommand
                0xfff0572c      0x254
 .text.do_bootm_subcommand
                0xfff0572c      0x254 common/libcommon.o
                0xfff0572c                do_bootm_subcommand

.text.do_bootm  0xfff05980      0x274
 .text.do_bootm
                0xfff05980      0x274 common/libcommon.o
                0xfff05980                do_bootm

.text.bootm_maybe_autostart
                0xfff05bf4       0x80
 .text.bootm_maybe_autostart
                0xfff05bf4       0x80 common/libcommon.o
                0xfff05bf4                bootm_maybe_autostart

.text.do_coninfo
                0xfff05c74       0xdc
 .text.do_coninfo
                0xfff05c74       0xdc common/libcommon.o
                0xfff05c74                do_coninfo

.text.cnvrt2    0xfff05d50       0x58
 .text.cnvrt2   0xfff05d50       0x58 common/libcommon.o

.text.mk_date   0xfff05da8      0x1d4
 .text.mk_date  0xfff05da8      0x1d4 common/libcommon.o
                0xfff05da8                mk_date

.text.do_date   0xfff05f7c      0x114
 .text.do_date  0xfff05f7c      0x114 common/libcommon.o
                0xfff05f7c                do_date

.text.do_echo   0xfff06090       0x98
 .text.do_echo  0xfff06090       0x98 common/libcommon.o
                0xfff06090                do_echo

.text.load_elf_image_shdr
                0xfff06128       0x9c
 .text.load_elf_image_shdr
                0xfff06128       0x9c common/libcommon.o

.text.do_bootelf_exec
                0xfff061c4       0x64
 .text.do_bootelf_exec
                0xfff061c4       0x64 common/libcommon.o
                0xfff061c4                do_bootelf_exec

.text.valid_elf_image
                0xfff06228       0x88
 .text.valid_elf_image
                0xfff06228       0x88 common/libcommon.o
                0xfff06228                valid_elf_image

.text.do_bootelf
                0xfff062b0      0x178
 .text.do_bootelf
                0xfff062b0      0x178 common/libcommon.o
                0xfff062b0                do_bootelf

.text.do_bootvx
                0xfff06428      0x264
 .text.do_bootvx
                0xfff06428      0x264 common/libcommon.o
                0xfff06428                do_bootvx

.text.read_fdc_reg
                0xfff0668c        0xc
 .text.read_fdc_reg
                0xfff0668c        0xc common/libcommon.o
                0xfff0668c                read_fdc_reg

.text.write_fdc_reg
                0xfff06698        0xc
 .text.write_fdc_reg
                0xfff06698        0xc common/libcommon.o
                0xfff06698                write_fdc_reg

.text.wait_for_fdc_int
                0xfff066a4       0x4c
 .text.wait_for_fdc_int
                0xfff066a4       0x4c common/libcommon.o
                0xfff066a4                wait_for_fdc_int

.text.read_fdc_byte
                0xfff066f0       0x54
 .text.read_fdc_byte
                0xfff066f0       0x54 common/libcommon.o
                0xfff066f0                read_fdc_byte

.text.fdc_need_more_output
                0xfff06744       0x58
 .text.fdc_need_more_output
                0xfff06744       0x58 common/libcommon.o
                0xfff06744                fdc_need_more_output

.text.write_fdc_byte
                0xfff0679c       0x64
 .text.write_fdc_byte
                0xfff0679c       0x64 common/libcommon.o
                0xfff0679c                write_fdc_byte

.text.fdc_issue_cmd
                0xfff06800      0x1d8
 .text.fdc_issue_cmd
                0xfff06800      0x1d8 common/libcommon.o
                0xfff06800                fdc_issue_cmd

.text.select_fdc_drive
                0xfff069d8       0x6c
 .text.select_fdc_drive
                0xfff069d8       0x6c common/libcommon.o
                0xfff069d8                select_fdc_drive

.text.stop_fdc_drive
                0xfff06a44       0x50
 .text.stop_fdc_drive
                0xfff06a44       0x50 common/libcommon.o
                0xfff06a44                stop_fdc_drive

.text.fdc_recalibrate
                0xfff06a94       0x68
 .text.fdc_recalibrate
                0xfff06a94       0x68 common/libcommon.o
                0xfff06a94                fdc_recalibrate

.text.fdc_seek  0xfff06afc       0x68
 .text.fdc_seek
                0xfff06afc       0x68 common/libcommon.o
                0xfff06afc                fdc_seek

.text.fdc_terminate
                0xfff06b64       0x5c
 .text.fdc_terminate
                0xfff06b64       0x5c common/libcommon.o
                0xfff06b64                fdc_terminate

.text.fdc_read_data
                0xfff06bc0      0x214
 .text.fdc_read_data
                0xfff06bc0      0x214 common/libcommon.o
                0xfff06bc0                fdc_read_data

.text.fdc_check_drive
                0xfff06dd4       0xe0
 .text.fdc_check_drive
                0xfff06dd4       0xe0 common/libcommon.o
                0xfff06dd4                fdc_check_drive

.text.fdc_setup
                0xfff06eb4       0xf0
 .text.fdc_setup
                0xfff06eb4       0xf0 common/libcommon.o
                0xfff06eb4                fdc_setup

.text.do_fdcboot
                0xfff06fa4      0x290
 .text.do_fdcboot
                0xfff06fa4      0x290 common/libcommon.o
                0xfff06fa4                do_fdcboot

.text.do_flinfo
                0xfff07234       0xb8
 .text.do_flinfo
                0xfff07234       0xb8 common/libcommon.o
                0xfff07234                do_flinfo

.text.flash_fill_sect_ranges
                0xfff072ec      0x1ac
 .text.flash_fill_sect_ranges
                0xfff072ec      0x1ac common/libcommon.o

.text.abbrev_spec.constprop.0
                0xfff07498      0x174
 .text.abbrev_spec.constprop.0
                0xfff07498      0x174 common/libcommon.o

.text.flash_sect_roundb
                0xfff0760c       0xf8
 .text.flash_sect_roundb
                0xfff0760c       0xf8 common/libcommon.o
                0xfff0760c                flash_sect_roundb

.text.addr_spec
                0xfff07704       0xdc
 .text.addr_spec
                0xfff07704       0xdc common/libcommon.o

.text.flash_sect_erase
                0xfff077e0       0xc4
 .text.flash_sect_erase
                0xfff077e0       0xc4 common/libcommon.o
                0xfff077e0                flash_sect_erase

.text.do_flerase
                0xfff078a4      0x200
 .text.do_flerase
                0xfff078a4      0x200 common/libcommon.o
                0xfff078a4                do_flerase

.text.flash_sect_protect
                0xfff07aa4      0x110
 .text.flash_sect_protect
                0xfff07aa4      0x110 common/libcommon.o
                0xfff07aa4                flash_sect_protect

.text.do_protect
                0xfff07bb4      0x2c0
 .text.do_protect
                0xfff07bb4      0x2c0 common/libcommon.o
                0xfff07bb4                do_protect

.text.do_help   0xfff07e74       0x54
 .text.do_help  0xfff07e74       0x54 common/libcommon.o
                0xfff07e74                do_help

.text.ident_cpy
                0xfff07ec8       0xa0
 .text.ident_cpy
                0xfff07ec8       0xa0 common/libcommon.o

.text.do_diskboot
                0xfff07f68      0x330
 .text.do_diskboot
                0xfff07f68      0x330 common/libcommon.o
                0xfff07f68                do_diskboot

.text.__ide_outb
                0xfff08298       0x40
 .text.__ide_outb
                0xfff08298       0x40 common/libcommon.o
                0xfff08298                ide_outb
                0xfff08298                __ide_outb

.text.__ide_inb
                0xfff082d8       0x4c
 .text.__ide_inb
                0xfff082d8       0x4c common/libcommon.o
                0xfff082d8                __ide_inb
                0xfff082d8                ide_inb

.text.ide_wait  0xfff08324       0x58
 .text.ide_wait
                0xfff08324       0x58 common/libcommon.o

.text.ide_read  0xfff0837c      0x224
 .text.ide_read
                0xfff0837c      0x224 common/libcommon.o
                0xfff0837c                ide_read

.text.ide_write
                0xfff085a0      0x17c
 .text.ide_write
                0xfff085a0      0x17c common/libcommon.o
                0xfff085a0                ide_write

.text.atapi_wait_mask.constprop.0
                0xfff0871c       0x6c
 .text.atapi_wait_mask.constprop.0
                0xfff0871c       0x6c common/libcommon.o

.text.atapi_issue
                0xfff08788      0x26c
 .text.atapi_issue
                0xfff08788      0x26c common/libcommon.o
                0xfff08788                atapi_issue

.text.atapi_issue_autoreq
                0xfff089f4      0x170
 .text.atapi_issue_autoreq
                0xfff089f4      0x170 common/libcommon.o
                0xfff089f4                atapi_issue_autoreq

.text.ide_ident
                0xfff08b64      0x3b8
 .text.ide_ident
                0xfff08b64      0x3b8 common/libcommon.o

.text.ide_init  0xfff08f1c      0x1dc
 .text.ide_init
                0xfff08f1c      0x1dc common/libcommon.o
                0xfff08f1c                ide_init

.text.do_ide    0xfff090f8      0x3e4
 .text.do_ide   0xfff090f8      0x3e4 common/libcommon.o
                0xfff090f8                do_ide

.text.atapi_read
                0xfff094dc       0x9c
 .text.atapi_read
                0xfff094dc       0x9c common/libcommon.o
                0xfff094dc                atapi_read

.text.evalexp   0xfff09578       0x90
 .text.evalexp  0xfff09578       0x90 common/libcommon.o

.text.binary_test
                0xfff09608      0x1f0
 .text.binary_test
                0xfff09608      0x1f0 common/libcommon.o
                0xfff09608                binary_test

.text.do_itest  0xfff097f8       0x94
 .text.do_itest
                0xfff097f8       0x94 common/libcommon.o
                0xfff097f8                do_itest

.text.jffs2_part_info
                0xfff0988c       0xa8
 .text.jffs2_part_info
                0xfff0988c       0xa8 common/libcommon.o

.text.mtdparts_init
                0xfff09934      0x2d4
 .text.mtdparts_init
                0xfff09934      0x2d4 common/libcommon.o
                0xfff09934                mtdparts_init

.text.do_jffs2_fsload
                0xfff09c08      0x140
 .text.do_jffs2_fsload
                0xfff09c08      0x140 common/libcommon.o
                0xfff09c08                do_jffs2_fsload

.text.do_jffs2_ls
                0xfff09d48       0x70
 .text.do_jffs2_ls
                0xfff09d48       0x70 common/libcommon.o
                0xfff09d48                do_jffs2_ls

.text.do_jffs2_fsinfo
                0xfff09db8       0x74
 .text.do_jffs2_fsinfo
                0xfff09db8       0x74 common/libcommon.o
                0xfff09db8                do_jffs2_fsinfo

.text.bin_data_init
                0xfff09e2c       0x40
 .text.bin_data_init
                0xfff09e2c       0x40 common/libcommon.o

.text.getcxmodem
                0xfff09e6c       0x3c
 .text.getcxmodem
                0xfff09e6c       0x3c common/libcommon.o

.text.bin_data_char
                0xfff09ea8       0x48
 .text.bin_data_char
                0xfff09ea8       0x48 common/libcommon.o

.text.load_serial
                0xfff09ef0      0x228
 .text.load_serial
                0xfff09ef0      0x228 common/libcommon.o

.text.do_load_serial
                0xfff0a118      0x1a4
 .text.do_load_serial
                0xfff0a118      0x1a4 common/libcommon.o
                0xfff0a118                do_load_serial

.text.load_serial_ymodem.isra.0
                0xfff0a2bc      0x128
 .text.load_serial_ymodem.isra.0
                0xfff0a2bc      0x128 common/libcommon.o

.text.send_pad  0xfff0a3e4       0x44
 .text.send_pad
                0xfff0a3e4       0x44 common/libcommon.o
                0xfff0a3e4                send_pad

.text.ktrans    0xfff0a428       0x30
 .text.ktrans   0xfff0a428       0x30 common/libcommon.o
                0xfff0a428                ktrans

.text.chk1      0xfff0a458       0x2c
 .text.chk1     0xfff0a458       0x2c common/libcommon.o
                0xfff0a458                chk1

.text.s1_sendpacket
                0xfff0a484       0x38
 .text.s1_sendpacket
                0xfff0a484       0x38 common/libcommon.o
                0xfff0a484                s1_sendpacket

.text.send_ack  0xfff0a4bc       0x74
 .text.send_ack
                0xfff0a4bc       0x74 common/libcommon.o
                0xfff0a4bc                send_ack

.text.send_nack
                0xfff0a530       0x74
 .text.send_nack
                0xfff0a530       0x74 common/libcommon.o
                0xfff0a530                send_nack

.text.k_data_init
                0xfff0a5a4       0x3c
 .text.k_data_init
                0xfff0a5a4       0x3c common/libcommon.o
                0xfff0a5a4                k_data_init

.text.k_data_save
                0xfff0a5e0       0x54
 .text.k_data_save
                0xfff0a5e0       0x54 common/libcommon.o
                0xfff0a5e0                k_data_save

.text.k_data_restore
                0xfff0a634       0x54
 .text.k_data_restore
                0xfff0a634       0x54 common/libcommon.o
                0xfff0a634                k_data_restore

.text.k_data_char
                0xfff0a688       0x8c
 .text.k_data_char
                0xfff0a688       0x8c common/libcommon.o
                0xfff0a688                k_data_char

.text.handle_send_packet
                0xfff0a714      0x1f0
 .text.handle_send_packet
                0xfff0a714      0x1f0 common/libcommon.o
                0xfff0a714                handle_send_packet

.text.do_load_serial_bin
                0xfff0a904      0x47c
 .text.do_load_serial_bin
                0xfff0a904      0x47c common/libcommon.o
                0xfff0a904                do_load_serial_bin

.text.do_mem_md
                0xfff0ad80       0xf0
 .text.do_mem_md
                0xfff0ad80       0xf0 common/libcommon.o
                0xfff0ad80                do_mem_md

.text.do_mem_base
                0xfff0ae70       0x54
 .text.do_mem_base
                0xfff0ae70       0x54 common/libcommon.o
                0xfff0ae70                do_mem_base

.text.do_mem_mtest
                0xfff0aec4      0x214
 .text.do_mem_mtest
                0xfff0aec4      0x214 common/libcommon.o
                0xfff0aec4                do_mem_mtest

.text.do_mem_crc
                0xfff0b0d8       0xc0
 .text.do_mem_crc
                0xfff0b0d8       0xc0 common/libcommon.o
                0xfff0b0d8                do_mem_crc

.text.do_mem_mw
                0xfff0b198       0xdc
 .text.do_mem_mw
                0xfff0b198       0xdc common/libcommon.o
                0xfff0b198                do_mem_mw

.text.do_mem_loop
                0xfff0b274      0x100
 .text.do_mem_loop
                0xfff0b274      0x100 common/libcommon.o
                0xfff0b274                do_mem_loop

.text.do_mem_cmp
                0xfff0b374      0x158
 .text.do_mem_cmp
                0xfff0b374      0x158 common/libcommon.o
                0xfff0b374                do_mem_cmp

.text.mod_mem.part.0
                0xfff0b4cc      0x1a8
 .text.mod_mem.part.0
                0xfff0b4cc      0x1a8 common/libcommon.o

.text.do_mem_mm
                0xfff0b674       0x1c
 .text.do_mem_mm
                0xfff0b674       0x1c common/libcommon.o
                0xfff0b674                do_mem_mm

.text.do_mem_nm
                0xfff0b690       0x1c
 .text.do_mem_nm
                0xfff0b690       0x1c common/libcommon.o
                0xfff0b690                do_mem_nm

.text.do_mem_cp
                0xfff0b6ac      0x134
 .text.do_mem_cp
                0xfff0b6ac      0x134 common/libcommon.o
                0xfff0b6ac                do_mem_cp

.text.do_sleep  0xfff0b7e0       0x7c
 .text.do_sleep
                0xfff0b7e0       0x7c common/libcommon.o
                0xfff0b7e0                do_sleep

.text.netboot_common
                0xfff0b85c      0x27c
 .text.netboot_common
                0xfff0b85c      0x27c common/libcommon.o

.text.do_bootp  0xfff0bad8        0xc
 .text.do_bootp
                0xfff0bad8        0xc common/libcommon.o
                0xfff0bad8                do_bootp

.text.do_tftpb  0xfff0bae4        0xc
 .text.do_tftpb
                0xfff0bae4        0xc common/libcommon.o
                0xfff0bae4                do_tftpb

.text.do_nfs    0xfff0baf0        0xc
 .text.do_nfs   0xfff0baf0        0xc common/libcommon.o
                0xfff0baf0                do_nfs

.text.do_env_delete
                0xfff0bafc       0x3c
 .text.do_env_delete
                0xfff0bafc       0x3c common/libcommon.o

.text.env_print
                0xfff0bb38       0xb0
 .text.env_print
                0xfff0bb38       0xb0 common/libcommon.o

.text.do_env_save
                0xfff0bbe8       0x4c
 .text.do_env_save
                0xfff0bbe8       0x4c common/libcommon.o
                0xfff0bbe8                do_env_save

.text.do_env    0xfff0bc34       0x98
 .text.do_env   0xfff0bc34       0x98 common/libcommon.o

.text.do_env_import
                0xfff0bccc      0x224
 .text.do_env_import
                0xfff0bccc      0x224 common/libcommon.o

.text.do_env_default
                0xfff0bef0       0x50
 .text.do_env_default
                0xfff0bef0       0x50 common/libcommon.o

.text.do_env_print
                0xfff0bf40       0xa8
 .text.do_env_print
                0xfff0bf40       0xa8 common/libcommon.o
                0xfff0bf40                do_env_print

.text.get_env_id
                0xfff0bfe8       0x2c
 .text.get_env_id
                0xfff0bfe8       0x2c common/libcommon.o
                0xfff0bfe8                get_env_id

.text._do_env_set
                0xfff0c014      0x320
 .text._do_env_set
                0xfff0c014      0x320 common/libcommon.o
                0xfff0c014                _do_env_set

.text.do_env_set
                0xfff0c334       0x20
 .text.do_env_set
                0xfff0c334       0x20 common/libcommon.o
                0xfff0c334                do_env_set

.text.setenv    0xfff0c354       0x6c
 .text.setenv   0xfff0c354       0x6c common/libcommon.o
                0xfff0c354                setenv

.text.do_env_export
                0xfff0c3c0      0x248
 .text.do_env_export
                0xfff0c3c0      0x248 common/libcommon.o

.text.envmatch  0xfff0c608       0x74
 .text.envmatch
                0xfff0c608       0x74 common/libcommon.o
                0xfff0c608                envmatch

.text.getenv_f  0xfff0c67c       0xdc
 .text.getenv_f
                0xfff0c67c       0xdc common/libcommon.o
                0xfff0c67c                getenv_f

.text.getenv    0xfff0c758       0x8c
 .text.getenv   0xfff0c758       0x8c common/libcommon.o
                0xfff0c758                getenv

.text.do_env_edit
                0xfff0c7e4       0x7c
 .text.do_env_edit
                0xfff0c7e4       0x7c common/libcommon.o
                0xfff0c7e4                do_env_edit

.text.getenv_ulong
                0xfff0c860       0x50
 .text.getenv_ulong
                0xfff0c860       0x50 common/libcommon.o
                0xfff0c860                getenv_ulong

.text.pci_cfg_write.isra.0
                0xfff0c8b0       0x2c
 .text.pci_cfg_write.isra.0
                0xfff0c8b0       0x2c common/libcommon.o

.text.pci_cfg_modify.isra.0
                0xfff0c8dc      0x180
 .text.pci_cfg_modify.isra.0
                0xfff0c8dc      0x180 common/libcommon.o

.text.pci_header_show_brief
                0xfff0ca5c       0x90
 .text.pci_header_show_brief
                0xfff0ca5c       0x90 common/libcommon.o
                0xfff0ca5c                pci_header_show_brief

.text.pci_header_show
                0xfff0caec      0x934
 .text.pci_header_show
                0xfff0caec      0x934 common/libcommon.o
                0xfff0caec                pci_header_show

.text.pciinfo   0xfff0d420      0x150
 .text.pciinfo  0xfff0d420      0x150 common/libcommon.o
                0xfff0d420                pciinfo

.text.do_pci    0xfff0d570      0x3c0
 .text.do_pci   0xfff0d570      0x3c0 common/libcommon.o
                0xfff0d570                do_pci

.text.scsi_ident_cpy
                0xfff0d930       0xd8
 .text.scsi_ident_cpy
                0xfff0d930       0xd8 common/libcommon.o
                0xfff0d930                scsi_ident_cpy

.text.scsi_setup_test_unit_ready
                0xfff0da08       0x30
 .text.scsi_setup_test_unit_ready
                0xfff0da08       0x30 common/libcommon.o
                0xfff0da08                scsi_setup_test_unit_ready

.text.scsi_setup_read_capacity
                0xfff0da38       0x34
 .text.scsi_setup_read_capacity
                0xfff0da38       0x34 common/libcommon.o
                0xfff0da38                scsi_setup_read_capacity

.text.scsi_setup_read_ext
                0xfff0da6c       0x38
 .text.scsi_setup_read_ext
                0xfff0da6c       0x38 common/libcommon.o
                0xfff0da6c                scsi_setup_read_ext

.text.scsi_read
                0xfff0daa4       0xf0
 .text.scsi_read
                0xfff0daa4       0xf0 common/libcommon.o
                0xfff0daa4                scsi_read

.text.do_scsiboot
                0xfff0db94      0x27c
 .text.do_scsiboot
                0xfff0db94      0x27c common/libcommon.o
                0xfff0db94                do_scsiboot

.text.scsi_setup_inquiry
                0xfff0de10       0x4c
 .text.scsi_setup_inquiry
                0xfff0de10       0x4c common/libcommon.o
                0xfff0de10                scsi_setup_inquiry

.text.scsi_scan
                0xfff0de5c      0x2ac
 .text.scsi_scan
                0xfff0de5c      0x2ac common/libcommon.o
                0xfff0de5c                scsi_scan

.text.scsi_init
                0xfff0e108       0x7c
 .text.scsi_init
                0xfff0e108       0x7c common/libcommon.o
                0xfff0e108                scsi_init

.text.do_scsi   0xfff0e184      0x340
 .text.do_scsi  0xfff0e184      0x340 common/libcommon.o
                0xfff0e184                do_scsi

.text.source    0xfff0e4c4      0x178
 .text.source   0xfff0e4c4      0x178 common/libcommon.o
                0xfff0e4c4                source

.text.do_source
                0xfff0e63c       0x68
 .text.do_source
                0xfff0e63c       0x68 common/libcommon.o
                0xfff0e63c                do_source

.text.do_version
                0xfff0e6a4       0x50
 .text.do_version
                0xfff0e6a4       0x50 common/libcommon.o
                0xfff0e6a4                do_version

.text.do_imgextract
                0xfff0e6f4      0x27c
 .text.do_imgextract
                0xfff0e6f4      0x27c common/libcommon.o
                0xfff0e6f4                do_imgextract

.text.find_cmd_tbl
                0xfff0e970       0xb4
 .text.find_cmd_tbl
                0xfff0e970       0xb4 common/libcommon.o
                0xfff0e970                find_cmd_tbl

.text.find_cmd  0xfff0ea24       0x40
 .text.find_cmd
                0xfff0ea24       0x40 common/libcommon.o
                0xfff0ea24                find_cmd

.text.cmd_usage
                0xfff0ea64       0x70
 .text.cmd_usage
                0xfff0ea64       0x70 common/libcommon.o
                0xfff0ea64                cmd_usage

.text._do_help  0xfff0ead4      0x1b0
 .text._do_help
                0xfff0ead4      0x1b0 common/libcommon.o
                0xfff0ead4                _do_help

.text.cmd_get_data_size
                0xfff0ec84       0x6c
 .text.cmd_get_data_size
                0xfff0ec84       0x6c common/libcommon.o
                0xfff0ec84                cmd_get_data_size

.text.cmd_process
                0xfff0ecf0       0xec
 .text.cmd_process
                0xfff0ecf0       0xec common/libcommon.o
                0xfff0ecf0                cmd_process

.text.console_setfile
                0xfff0eddc       0xb8
 .text.console_setfile
                0xfff0eddc       0xb8 common/libcommon.o

.text.fgetc     0xfff0ee94       0x50
 .text.fgetc    0xfff0ee94       0x50 common/libcommon.o
                0xfff0ee94                fgetc

.text.ftstc     0xfff0eee4       0x50
 .text.ftstc    0xfff0eee4       0x50 common/libcommon.o
                0xfff0eee4                ftstc

.text.fputc     0xfff0ef34       0x54
 .text.fputc    0xfff0ef34       0x54 common/libcommon.o
                0xfff0ef34                fputc

.text.fputs     0xfff0ef88       0x54
 .text.fputs    0xfff0ef88       0x54 common/libcommon.o
                0xfff0ef88                fputs

.text.getc      0xfff0efdc       0x2c
 .text.getc     0xfff0efdc       0x2c common/libcommon.o
                0xfff0efdc                getc

.text.tstc      0xfff0f008       0x2c
 .text.tstc     0xfff0f008       0x2c common/libcommon.o
                0xfff0f008                tstc

.text.putc      0xfff0f034       0x28
 .text.putc     0xfff0f034       0x28 common/libcommon.o
                0xfff0f034                putc

.text.puts      0xfff0f05c       0x28
 .text.puts     0xfff0f05c       0x28 common/libcommon.o
                0xfff0f05c                puts

.text.printf    0xfff0f084       0xa8
 .text.printf   0xfff0f084       0xa8 common/libcommon.o
                0xfff0f084                printf

.text.vprintf   0xfff0f12c       0x4c
 .text.vprintf  0xfff0f12c       0x4c common/libcommon.o
                0xfff0f12c                vprintf

.text.ctrlc     0xfff0f178       0x78
 .text.ctrlc    0xfff0f178       0x78 common/libcommon.o
                0xfff0f178                ctrlc

.text.had_ctrlc
                0xfff0f1f0       0x2c
 .text.had_ctrlc
                0xfff0f1f0       0x2c common/libcommon.o
                0xfff0f1f0                had_ctrlc

.text.clear_ctrlc
                0xfff0f21c       0x30
 .text.clear_ctrlc
                0xfff0f21c       0x30 common/libcommon.o
                0xfff0f21c                clear_ctrlc

.text.search_device
                0xfff0f24c       0x3c
 .text.search_device
                0xfff0f24c       0x3c common/libcommon.o
                0xfff0f24c                search_device

.text.console_assign
                0xfff0f288       0x5c
 .text.console_assign
                0xfff0f288       0x5c common/libcommon.o
                0xfff0f288                console_assign

.text.console_init_f
                0xfff0f2e4       0x10
 .text.console_init_f
                0xfff0f2e4       0x10 common/libcommon.o
                0xfff0f2e4                console_init_f

.text.stdio_print_current_devices
                0xfff0f2f4       0xd0
 .text.stdio_print_current_devices
                0xfff0f2f4       0xd0 common/libcommon.o
                0xfff0f2f4                stdio_print_current_devices

.text.console_init_r
                0xfff0f3c4      0x104
 .text.console_init_r
                0xfff0f3c4      0x104 common/libcommon.o
                0xfff0f3c4                console_init_r

.text.sbrk      0xfff0f4c8       0x70
 .text.sbrk     0xfff0f4c8       0x70 common/libcommon.o
                0xfff0f4c8                sbrk

.text.mem_malloc_init
                0xfff0f538       0x48
 .text.mem_malloc_init
                0xfff0f538       0x48 common/libcommon.o
                0xfff0f538                mem_malloc_init

.text.malloc_trim
                0xfff0f580       0xd0
 .text.malloc_trim
                0xfff0f580       0xd0 common/libcommon.o
                0xfff0f580                malloc_trim

.text.free      0xfff0f650      0x250
 .text.free     0xfff0f650      0x250 common/libcommon.o
                0xfff0f650                free

.text.malloc    0xfff0f8a0      0x5f0
 .text.malloc   0xfff0f8a0      0x5f0 common/libcommon.o
                0xfff0f8a0                malloc

.text.calloc    0xfff0fe90       0xe4
 .text.calloc   0xfff0fe90       0xe4 common/libcommon.o
                0xfff0fe90                calloc

.text.env_get_addr
                0xfff0ff74       0x3c
 .text.env_get_addr
                0xfff0ff74       0x3c common/libcommon.o
                0xfff0ff74                env_get_addr

.text.env_get_char_memory
                0xfff0ffb0       0x24
 .text.env_get_char_memory
                0xfff0ffb0       0x24 common/libcommon.o
                0xfff0ffb0                env_get_char_memory

.text.env_get_char
                0xfff0ffd4       0x5c
 .text.env_get_char
                0xfff0ffd4       0x5c common/libcommon.o
                0xfff0ffd4                env_get_char

.text.set_default_env
                0xfff10030       0xa8
 .text.set_default_env
                0xfff10030       0xa8 common/libcommon.o
                0xfff10030                set_default_env

.text.env_import
                0xfff100d8       0xc0
 .text.env_import
                0xfff100d8       0xc0 common/libcommon.o
                0xfff100d8                env_import

.text.env_relocate
                0xfff10198       0x48
 .text.env_relocate
                0xfff10198       0x48 common/libcommon.o
                0xfff10198                env_relocate

.text.env_get_char_spec
                0xfff101e0       0x30
 .text.env_get_char_spec
                0xfff101e0       0x30 common/libcommon.o
                0xfff101e0                env_get_char_spec

.text.env_relocate_spec
                0xfff10210       0x38
 .text.env_relocate_spec
                0xfff10210       0x38 common/libcommon.o
                0xfff10210                env_relocate_spec

.text.saveenv   0xfff10248       0x9c
 .text.saveenv  0xfff10248       0x9c common/libcommon.o
                0xfff10248                saveenv

.text.env_init  0xfff102e4       0x88
 .text.env_init
                0xfff102e4       0x88 common/libcommon.o
                0xfff102e4                env_init

.text.dummy     0xfff1036c        0x4
 .text.dummy    0xfff1036c        0x4 common/libcommon.o

.text.get_version
                0xfff10370        0x8
 .text.get_version
                0xfff10370        0x8 common/libcommon.o
                0xfff10370                get_version

.text.jumptable_init
                0xfff10378      0x164
 .text.jumptable_init
                0xfff10378      0x164 common/libcommon.o
                0xfff10378                jumptable_init

.text.flash_protect
                0xfff104dc       0xdc
 .text.flash_protect
                0xfff104dc       0xdc common/libcommon.o
                0xfff104dc                flash_protect

.text.addr2info
                0xfff105b8       0x98
 .text.addr2info
                0xfff105b8       0x98 common/libcommon.o
                0xfff105b8                addr2info

.text.flash_write
                0xfff10650      0x148
 .text.flash_write
                0xfff10650      0x148 common/libcommon.o
                0xfff10650                flash_write

.text.flash_perror
                0xfff10798       0xd0
 .text.flash_perror
                0xfff10798       0xd0 common/libcommon.o
                0xfff10798                flash_perror

.text.image_check_hcrc
                0xfff10868       0x58
 .text.image_check_hcrc
                0xfff10868       0x58 common/libcommon.o
                0xfff10868                image_check_hcrc

.text.image_check_dcrc
                0xfff108c0       0x40
 .text.image_check_dcrc
                0xfff108c0       0x40 common/libcommon.o
                0xfff108c0                image_check_dcrc

.text.image_multi_count
                0xfff10900       0x1c
 .text.image_multi_count
                0xfff10900       0x1c common/libcommon.o
                0xfff10900                image_multi_count

.text.image_multi_getimg
                0xfff1091c       0x90
 .text.image_multi_getimg
                0xfff1091c       0x90 common/libcommon.o
                0xfff1091c                image_multi_getimg

.text.getenv_yesno
                0xfff109ac       0x40
 .text.getenv_yesno
                0xfff109ac       0x40 common/libcommon.o
                0xfff109ac                getenv_yesno

.text.getenv_bootm_low
                0xfff109ec       0x58
 .text.getenv_bootm_low
                0xfff109ec       0x58 common/libcommon.o
                0xfff109ec                getenv_bootm_low

.text.getenv_bootm_size
                0xfff10a44       0x78
 .text.getenv_bootm_size
                0xfff10a44       0x78 common/libcommon.o
                0xfff10a44                getenv_bootm_size

.text.getenv_bootm_mapsize
                0xfff10abc       0x50
 .text.getenv_bootm_mapsize
                0xfff10abc       0x50 common/libcommon.o
                0xfff10abc                getenv_bootm_mapsize

.text.memmove_wd
                0xfff10b0c        0xc
 .text.memmove_wd
                0xfff10b0c        0xc common/libcommon.o
                0xfff10b0c                memmove_wd

.text.genimg_print_size
                0xfff10b18       0x4c
 .text.genimg_print_size
                0xfff10b18       0x4c common/libcommon.o
                0xfff10b18                genimg_print_size

.text.get_table_entry_name
                0xfff10b64       0x2c
 .text.get_table_entry_name
                0xfff10b64       0x2c common/libcommon.o
                0xfff10b64                get_table_entry_name

.text.genimg_get_os_name
                0xfff10b90       0x30
 .text.genimg_get_os_name
                0xfff10b90       0x30 common/libcommon.o
                0xfff10b90                genimg_get_os_name

.text.genimg_get_arch_name
                0xfff10bc0       0x30
 .text.genimg_get_arch_name
                0xfff10bc0       0x30 common/libcommon.o
                0xfff10bc0                genimg_get_arch_name

.text.genimg_get_type_name
                0xfff10bf0       0x30
 .text.genimg_get_type_name
                0xfff10bf0       0x30 common/libcommon.o
                0xfff10bf0                genimg_get_type_name

.text.genimg_get_comp_name
                0xfff10c20       0x30
 .text.genimg_get_comp_name
                0xfff10c20       0x30 common/libcommon.o
                0xfff10c20                genimg_get_comp_name

.text.image_print_contents
                0xfff10c50      0x1cc
 .text.image_print_contents
                0xfff10c50      0x1cc common/libcommon.o
                0xfff10c50                image_print_contents

.text.genimg_get_format
                0xfff10e1c       0x1c
 .text.genimg_get_format
                0xfff10e1c       0x1c common/libcommon.o
                0xfff10e1c                genimg_get_format

.text.genimg_get_image
                0xfff10e38        0x4
 .text.genimg_get_image
                0xfff10e38        0x4 common/libcommon.o
                0xfff10e38                genimg_get_image

.text.genimg_has_config
                0xfff10e3c        0x8
 .text.genimg_has_config
                0xfff10e3c        0x8 common/libcommon.o
                0xfff10e3c                genimg_has_config

.text.boot_get_ramdisk
                0xfff10e44      0x22c
 .text.boot_get_ramdisk
                0xfff10e44      0x22c common/libcommon.o
                0xfff10e44                boot_get_ramdisk

.text.boot_ramdisk_high
                0xfff11070      0x13c
 .text.boot_ramdisk_high
                0xfff11070      0x13c common/libcommon.o
                0xfff11070                boot_ramdisk_high

.text.boot_get_cmdline
                0xfff111ac       0x90
 .text.boot_get_cmdline
                0xfff111ac       0x90 common/libcommon.o
                0xfff111ac                boot_get_cmdline

.text.boot_get_kbd
                0xfff1123c       0x64
 .text.boot_get_kbd
                0xfff1123c       0x64 common/libcommon.o
                0xfff1123c                boot_get_kbd

.text.delete_char
                0xfff112a0       0xf4
 .text.delete_char
                0xfff112a0       0xf4 common/libcommon.o

.text.__show_boot_progress
                0xfff11394        0x4
 .text.__show_boot_progress
                0xfff11394        0x4 common/libcommon.o
                0xfff11394                __show_boot_progress
                0xfff11394                show_boot_progress

.text.readline_into_buffer
                0xfff11398      0x1c0
 .text.readline_into_buffer
                0xfff11398      0x1c0 common/libcommon.o
                0xfff11398                readline_into_buffer

.text.readline  0xfff11558       0x34
 .text.readline
                0xfff11558       0x34 common/libcommon.o
                0xfff11558                readline

.text.parse_line
                0xfff1158c       0xbc
 .text.parse_line
                0xfff1158c       0xbc common/libcommon.o
                0xfff1158c                parse_line

.text.builtin_run_command
                0xfff11648      0x378
 .text.builtin_run_command
                0xfff11648      0x378 common/libcommon.o

.text.run_command
                0xfff119c0       0x2c
 .text.run_command
                0xfff119c0       0x2c common/libcommon.o
                0xfff119c0                run_command

.text.main_loop
                0xfff119ec      0x1bc
 .text.main_loop
                0xfff119ec      0x1bc common/libcommon.o
                0xfff119ec                main_loop

.text.do_run    0xfff11ba8       0x80
 .text.do_run   0xfff11ba8       0x80 common/libcommon.o
                0xfff11ba8                do_run

.text.hex1_bin  0xfff11c28       0x48
 .text.hex1_bin
                0xfff11c28       0x48 common/libcommon.o

.text.hex2_bin  0xfff11c70       0x50
 .text.hex2_bin
                0xfff11c70       0x50 common/libcommon.o

.text.srec_decode
                0xfff11cc0      0x22c
 .text.srec_decode
                0xfff11cc0      0x22c common/libcommon.o
                0xfff11cc0                srec_decode

.text.stdio_get_list
                0xfff11eec       0x2c
 .text.stdio_get_list
                0xfff11eec       0x2c common/libcommon.o
                0xfff11eec                stdio_get_list

.text.stdio_get_by_name
                0xfff11f18       0x68
 .text.stdio_get_by_name
                0xfff11f18       0x68 common/libcommon.o
                0xfff11f18                stdio_get_by_name

.text.stdio_clone
                0xfff11f80       0x5c
 .text.stdio_clone
                0xfff11f80       0x5c common/libcommon.o
                0xfff11f80                stdio_clone

.text.stdio_register
                0xfff11fdc       0x64
 .text.stdio_register
                0xfff11fdc       0x64 common/libcommon.o
                0xfff11fdc                stdio_register

.text.stdio_init
                0xfff12040       0x88
 .text.stdio_init
                0xfff12040       0x88 common/libcommon.o
                0xfff12040                stdio_init

.text.CYGACC_COMM_IF_GETC_TIMEOUT
                0xfff120c8       0x5c
 .text.CYGACC_COMM_IF_GETC_TIMEOUT
                0xfff120c8       0x5c common/libcommon.o
                0xfff120c8                CYGACC_COMM_IF_GETC_TIMEOUT

.text.xyzModem_flush
                0xfff12124       0x44
 .text.xyzModem_flush
                0xfff12124       0x44 common/libcommon.o

.text.CYGACC_COMM_IF_PUTC
                0xfff12168        0x8
 .text.CYGACC_COMM_IF_PUTC
                0xfff12168        0x8 common/libcommon.o
                0xfff12168                CYGACC_COMM_IF_PUTC

.text.xyzModem_get_hdr
                0xfff12170      0x26c
 .text.xyzModem_get_hdr
                0xfff12170      0x26c common/libcommon.o

.text.parse_num
                0xfff123dc      0x124
 .text.parse_num
                0xfff123dc      0x124 common/libcommon.o
                0xfff123dc                parse_num

.text.xyzModem_stream_open
                0xfff12500      0x16c
 .text.xyzModem_stream_open
                0xfff12500      0x16c common/libcommon.o
                0xfff12500                xyzModem_stream_open

.text.xyzModem_stream_read
                0xfff1266c      0x288
 .text.xyzModem_stream_read
                0xfff1266c      0x288 common/libcommon.o
                0xfff1266c                xyzModem_stream_read

.text.xyzModem_stream_close
                0xfff128f4       0x54
 .text.xyzModem_stream_close
                0xfff128f4       0x54 common/libcommon.o
                0xfff128f4                xyzModem_stream_close

.text.xyzModem_stream_terminate
                0xfff12948       0xfc
 .text.xyzModem_stream_terminate
                0xfff12948       0xfc common/libcommon.o
                0xfff12948                xyzModem_stream_terminate

.text.xyzModem_error
                0xfff12a44       0x8c
 .text.xyzModem_error
                0xfff12a44       0x8c common/libcommon.o
                0xfff12a44                xyzModem_error

.text.print_part_header
                0xfff12ad0       0xbc
 .text.print_part_header
                0xfff12ad0       0xbc disk/libdisk.o

.text.dev_print
                0xfff12b8c      0x1e0
 .text.dev_print
                0xfff12b8c      0x1e0 disk/libdisk.o
                0xfff12b8c                dev_print

.text.init_part
                0xfff12d6c       0x58
 .text.init_part
                0xfff12d6c       0x58 disk/libdisk.o
                0xfff12d6c                init_part

.text.get_partition_info
                0xfff12dc4       0x5c
 .text.get_partition_info
                0xfff12dc4       0x5c disk/libdisk.o
                0xfff12dc4                get_partition_info

.text.print_part
                0xfff12e20       0xcc
 .text.print_part
                0xfff12e20       0xcc disk/libdisk.o
                0xfff12e20                print_part

.text.part_mac_read_ddb
                0xfff12eec       0x6c
 .text.part_mac_read_ddb
                0xfff12eec       0x6c disk/libdisk.o

.text.test_part_mac
                0xfff12f58       0x84
 .text.test_part_mac
                0xfff12f58       0x84 disk/libdisk.o
                0xfff12f58                test_part_mac

.text.print_part_mac
                0xfff12fdc      0x1b0
 .text.print_part_mac
                0xfff12fdc      0x1b0 disk/libdisk.o
                0xfff12fdc                print_part_mac

.text.get_partition_info_mac
                0xfff1318c      0x140
 .text.get_partition_info_mac
                0xfff1318c      0x140 disk/libdisk.o
                0xfff1318c                get_partition_info_mac

.text.le32_to_int
                0xfff132cc        0x8
 .text.le32_to_int
                0xfff132cc        0x8 disk/libdisk.o

.text.is_extended
                0xfff132d4       0x24
 .text.is_extended
                0xfff132d4       0x24 disk/libdisk.o

.text.print_partition_extended
                0xfff132f8      0x1f0
 .text.print_partition_extended
                0xfff132f8      0x1f0 disk/libdisk.o

.text.get_partition_info_extended
                0xfff134e8      0x208
 .text.get_partition_info_extended
                0xfff134e8      0x208 disk/libdisk.o

.text.test_part_dos
                0xfff136f0       0x88
 .text.test_part_dos
                0xfff136f0       0x88 disk/libdisk.o
                0xfff136f0                test_part_dos

.text.print_part_dos
                0xfff13778       0x50
 .text.print_part_dos
                0xfff13778       0x50 disk/libdisk.o
                0xfff13778                print_part_dos

.text.get_partition_info_dos
                0xfff137c8       0x18
 .text.get_partition_info_dos
                0xfff137c8       0x18 disk/libdisk.o
                0xfff137c8                get_partition_info_dos

.text.get_partition_info_iso_verb
                0xfff137e0      0x39c
 .text.get_partition_info_iso_verb
                0xfff137e0      0x39c disk/libdisk.o
                0xfff137e0                get_partition_info_iso_verb

.text.get_partition_info_iso
                0xfff13b7c        0x8
 .text.get_partition_info_iso
                0xfff13b7c        0x8 disk/libdisk.o
                0xfff13b7c                get_partition_info_iso

.text.print_part_iso
                0xfff13b84       0xb4
 .text.print_part_iso
                0xfff13b84       0xb4 disk/libdisk.o
                0xfff13b84                print_part_iso

.text.test_part_iso
                0xfff13c38       0x2c
 .text.test_part_iso
                0xfff13c38       0x2c disk/libdisk.o
                0xfff13c38                test_part_iso

.text.scsi_print_error
                0xfff13c64      0x340
 .text.scsi_print_error
                0xfff13c64      0x340 drivers/block/libblock.o
                0xfff13c64                scsi_print_error

.text.swap_script
                0xfff13fa4       0x14
 .text.swap_script
                0xfff13fa4       0x14 drivers/block/libblock.o
                0xfff13fa4                swap_script

.text.scsi_write_byte
                0xfff13fb8       0x30
 .text.scsi_write_byte
                0xfff13fb8       0x30 drivers/block/libblock.o
                0xfff13fb8                scsi_write_byte

.text.scsi_read_byte
                0xfff13fe8       0x30
 .text.scsi_read_byte
                0xfff13fe8       0x30 drivers/block/libblock.o
                0xfff13fe8                scsi_read_byte

.text.handle_scsi_int
                0xfff14018      0x180
 .text.handle_scsi_int
                0xfff14018      0x180 drivers/block/libblock.o
                0xfff14018                handle_scsi_int

.text.scsi_int_enable
                0xfff14198       0x58
 .text.scsi_int_enable
                0xfff14198       0x58 drivers/block/libblock.o
                0xfff14198                scsi_int_enable

.text.scsi_write_dsp
                0xfff141f0       0x34
 .text.scsi_write_dsp
                0xfff141f0       0x34 drivers/block/libblock.o
                0xfff141f0                scsi_write_dsp

.text.scsi_set_script
                0xfff14224      0x834
 .text.scsi_set_script
                0xfff14224      0x834 drivers/block/libblock.o
                0xfff14224                scsi_set_script

.text.scsi_issue
                0xfff14a58      0x1e8
 .text.scsi_issue
                0xfff14a58      0x1e8 drivers/block/libblock.o
                0xfff14a58                scsi_issue

.text.scsi_exec
                0xfff14c40      0x150
 .text.scsi_exec
                0xfff14c40      0x150 drivers/block/libblock.o
                0xfff14c40                scsi_exec

.text.scsi_chip_init
                0xfff14d90      0x148
 .text.scsi_chip_init
                0xfff14d90      0x148 drivers/block/libblock.o
                0xfff14d90                scsi_chip_init

.text.scsi_bus_reset
                0xfff14ed8       0xb8
 .text.scsi_bus_reset
                0xfff14ed8       0xb8 drivers/block/libblock.o
                0xfff14ed8                scsi_bus_reset

.text.scsi_low_level_init
                0xfff14f90       0x98
 .text.scsi_low_level_init
                0xfff14f90       0x98 drivers/block/libblock.o
                0xfff14f90                scsi_low_level_init

.text.write_pgcs_config
                0xfff15028       0x24
 .text.write_pgcs_config
                0xfff15028       0x24 drivers/misc/libmisc.o

.text.initialise_ns87308
                0xfff1504c      0x268
 .text.initialise_ns87308
                0xfff1504c      0x268 drivers/misc/libmisc.o
                0xfff1504c                initialise_ns87308

.text.___arch__swab32
                0xfff152b4       0x18
 .text.___arch__swab32
                0xfff152b4       0x18 drivers/net/libnet.o

.text.dc21x4x_recv
                0xfff152cc       0xc0
 .text.dc21x4x_recv
                0xfff152cc       0xc0 drivers/net/libnet.o

.text.dc21x4x_send
                0xfff1538c      0x11c
 .text.dc21x4x_send
                0xfff1538c      0x11c drivers/net/libnet.o

.text.OUTL.isra.0
                0xfff154a8       0x44
 .text.OUTL.isra.0
                0xfff154a8       0x2c drivers/net/libnet.o
 .text.OUTL.isra.0
                0xfff154d4       0x18 board/eltec/bab7xx/libbab7xx.o

.text.sendto_srom.constprop.0.isra.0
                0xfff154ec       0x28
 .text.sendto_srom.constprop.0.isra.0
                0xfff154ec       0x28 drivers/net/libnet.o

.text.INL.isra.0
                0xfff15514        0x8
 .text.INL.isra.0
                0xfff15514        0x8 drivers/net/libnet.o

.text.dc21x4x_init
                0xfff1551c      0x2fc
 .text.dc21x4x_init
                0xfff1551c      0x2fc drivers/net/libnet.o

.text.dc21x4x_halt
                0xfff15818       0x68
 .text.dc21x4x_halt
                0xfff15818       0x68 drivers/net/libnet.o

.text.dc21x4x_initialize
                0xfff15880      0x3e0
 .text.dc21x4x_initialize
                0xfff15880      0x3e0 drivers/net/libnet.o
                0xfff15880                dc21x4x_initialize

.text.pci_hose_read_config_byte
                0xfff15c60        0xc
 .text.pci_hose_read_config_byte
                0xfff15c60        0xc drivers/pci/libpci.o
                0xfff15c60                pci_hose_read_config_byte

.text.pci_hose_read_config_word
                0xfff15c6c        0xc
 .text.pci_hose_read_config_word
                0xfff15c6c        0xc drivers/pci/libpci.o
                0xfff15c6c                pci_hose_read_config_word

.text.pci_hose_read_config_dword
                0xfff15c78        0xc
 .text.pci_hose_read_config_dword
                0xfff15c78        0xc drivers/pci/libpci.o
                0xfff15c78                pci_hose_read_config_dword

.text.pci_hose_write_config_byte
                0xfff15c84        0xc
 .text.pci_hose_write_config_byte
                0xfff15c84        0xc drivers/pci/libpci.o
                0xfff15c84                pci_hose_write_config_byte

.text.pci_hose_write_config_word
                0xfff15c90        0xc
 .text.pci_hose_write_config_word
                0xfff15c90        0xc drivers/pci/libpci.o
                0xfff15c90                pci_hose_write_config_word

.text.pci_hose_write_config_dword
                0xfff15c9c        0xc
 .text.pci_hose_write_config_dword
                0xfff15c9c        0xc drivers/pci/libpci.o
                0xfff15c9c                pci_hose_write_config_dword

.text.pci_register_hose
                0xfff15ca8       0x44
 .text.pci_register_hose
                0xfff15ca8       0x44 drivers/pci/libpci.o
                0xfff15ca8                pci_register_hose

.text.pci_bus_to_hose
                0xfff15cec       0x60
 .text.pci_bus_to_hose
                0xfff15cec       0x60 drivers/pci/libpci.o
                0xfff15cec                pci_bus_to_hose

.text.pci_read_config_byte
                0xfff15d4c       0x68
 .text.pci_read_config_byte
                0xfff15d4c       0x68 drivers/pci/libpci.o
                0xfff15d4c                pci_read_config_byte

.text.pci_read_config_word
                0xfff15db4       0x68
 .text.pci_read_config_word
                0xfff15db4       0x68 drivers/pci/libpci.o
                0xfff15db4                pci_read_config_word

.text.pci_read_config_dword
                0xfff15e1c       0x68
 .text.pci_read_config_dword
                0xfff15e1c       0x68 drivers/pci/libpci.o
                0xfff15e1c                pci_read_config_dword

.text.pci_write_config_byte
                0xfff15e84       0x60
 .text.pci_write_config_byte
                0xfff15e84       0x60 drivers/pci/libpci.o
                0xfff15e84                pci_write_config_byte

.text.pci_write_config_word
                0xfff15ee4       0x60
 .text.pci_write_config_word
                0xfff15ee4       0x60 drivers/pci/libpci.o
                0xfff15ee4                pci_write_config_word

.text.pci_write_config_dword
                0xfff15f44       0x60
 .text.pci_write_config_dword
                0xfff15f44       0x60 drivers/pci/libpci.o
                0xfff15f44                pci_write_config_dword

.text.pci_find_devices
                0xfff15fa4      0x120
 .text.pci_find_devices
                0xfff15fa4      0x120 drivers/pci/libpci.o
                0xfff15fa4                pci_find_devices

.text.pci_find_device
                0xfff160c4       0x38
 .text.pci_find_device
                0xfff160c4       0x38 drivers/pci/libpci.o
                0xfff160c4                pci_find_device

.text.__pci_hose_phys_to_bus
                0xfff160fc       0x80
 .text.__pci_hose_phys_to_bus
                0xfff160fc       0x80 drivers/pci/libpci.o
                0xfff160fc                __pci_hose_phys_to_bus

.text.pci_hose_phys_to_bus
                0xfff1617c       0x8c
 .text.pci_hose_phys_to_bus
                0xfff1617c       0x8c drivers/pci/libpci.o
                0xfff1617c                pci_hose_phys_to_bus

.text.__pci_hose_bus_to_phys
                0xfff16208       0x90
 .text.__pci_hose_bus_to_phys
                0xfff16208       0x90 drivers/pci/libpci.o
                0xfff16208                __pci_hose_bus_to_phys

.text.pci_hose_bus_to_phys
                0xfff16298       0x8c
 .text.pci_hose_bus_to_phys
                0xfff16298       0x8c drivers/pci/libpci.o
                0xfff16298                pci_hose_bus_to_phys

.text.pci_find_config
                0xfff16324       0x9c
 .text.pci_find_config
                0xfff16324       0x9c drivers/pci/libpci.o
                0xfff16324                pci_find_config

.text.pci_class_str
                0xfff163c0       0xe8
 .text.pci_class_str
                0xfff163c0       0xe8 drivers/pci/libpci.o
                0xfff163c0                pci_class_str

.text.__pci_skip_dev
                0xfff164a8       0x18
 .text.__pci_skip_dev
                0xfff164a8       0x18 drivers/pci/libpci.o
                0xfff164a8                __pci_skip_dev
                0xfff164a8                pci_skip_dev

.text.pci_hose_scan_bus
                0xfff164c0      0x188
 .text.pci_hose_scan_bus
                0xfff164c0      0x188 drivers/pci/libpci.o
                0xfff164c0                pci_hose_scan_bus

.text.pci_hose_scan
                0xfff16648       0x40
 .text.pci_hose_scan
                0xfff16648       0x40 drivers/pci/libpci.o
                0xfff16648                pci_hose_scan

.text.pci_init  0xfff16688       0x30
 .text.pci_init
                0xfff16688       0x30 drivers/pci/libpci.o
                0xfff16688                pci_init

.text.pciauto_region_init
                0xfff166b8       0x18
 .text.pciauto_region_init
                0xfff166b8       0x18 drivers/pci/libpci.o
                0xfff166b8                pciauto_region_init

.text.pciauto_region_align
                0xfff166d0       0x1c
 .text.pciauto_region_align
                0xfff166d0       0x1c drivers/pci/libpci.o
                0xfff166d0                pciauto_region_align

.text.pciauto_region_allocate
                0xfff166ec       0x54
 .text.pciauto_region_allocate
                0xfff166ec       0x54 drivers/pci/libpci.o
                0xfff166ec                pciauto_region_allocate

.text.pciauto_setup_device
                0xfff16740      0x1f0
 .text.pciauto_setup_device
                0xfff16740      0x1f0 drivers/pci/libpci.o
                0xfff16740                pciauto_setup_device

.text.pciauto_prescan_setup_bridge
                0xfff16930      0x18c
 .text.pciauto_prescan_setup_bridge
                0xfff16930      0x18c drivers/pci/libpci.o
                0xfff16930                pciauto_prescan_setup_bridge

.text.pciauto_postscan_setup_bridge
                0xfff16abc      0x10c
 .text.pciauto_postscan_setup_bridge
                0xfff16abc      0x10c drivers/pci/libpci.o
                0xfff16abc                pciauto_postscan_setup_bridge

.text.pciauto_config_init
                0xfff16bc8      0x11c
 .text.pciauto_config_init
                0xfff16bc8      0x11c drivers/pci/libpci.o
                0xfff16bc8                pciauto_config_init

.text.pciauto_config_device
                0xfff16ce4      0x120
 .text.pciauto_config_device
                0xfff16ce4      0x120 drivers/pci/libpci.o
                0xfff16ce4                pciauto_config_device

.text.indirect_read_config_byte
                0xfff16e04       0x58
 .text.indirect_read_config_byte
                0xfff16e04       0x58 drivers/pci/libpci.o

.text.indirect_read_config_word
                0xfff16e5c       0x58
 .text.indirect_read_config_word
                0xfff16e5c       0x58 drivers/pci/libpci.o

.text.indirect_read_config_dword
                0xfff16eb4       0x50
 .text.indirect_read_config_dword
                0xfff16eb4       0x50 drivers/pci/libpci.o

.text.indirect_write_config_byte
                0xfff16f04       0x4c
 .text.indirect_write_config_byte
                0xfff16f04       0x4c drivers/pci/libpci.o

.text.indirect_write_config_word
                0xfff16f50       0x4c
 .text.indirect_write_config_word
                0xfff16f50       0x4c drivers/pci/libpci.o

.text.indirect_write_config_dword
                0xfff16f9c       0x44
 .text.indirect_write_config_dword
                0xfff16f9c       0x44 drivers/pci/libpci.o

.text.pci_setup_indirect
                0xfff16fe0       0x5c
 .text.pci_setup_indirect
                0xfff16fe0       0x5c drivers/pci/libpci.o
                0xfff16fe0                pci_setup_indirect

.text.initialise_pic
                0xfff1703c      0x174
 .text.initialise_pic
                0xfff1703c      0x174 drivers/pci/libpci.o
                0xfff1703c                initialise_pic

.text.initialise_dma
                0xfff171b0       0xe4
 .text.initialise_dma
                0xfff171b0       0xe4 drivers/pci/libpci.o
                0xfff171b0                initialise_dma

.text.initialise_w83c553f
                0xfff17294      0x1b0
 .text.initialise_w83c553f
                0xfff17294      0x1b0 drivers/pci/libpci.o
                0xfff17294                initialise_w83c553f

.text.GregorianDay
                0xfff17444       0xdc
 .text.GregorianDay
                0xfff17444       0xdc drivers/rtc/librtc.o
                0xfff17444                GregorianDay

.text.to_tm     0xfff17520       0xe0
 .text.to_tm    0xfff17520       0xe0 drivers/rtc/librtc.o
                0xfff17520                to_tm

.text.rtc_write
                0xfff17600       0x64
 .text.rtc_write
                0xfff17600       0x64 drivers/rtc/librtc.o

.text.rtc_read  0xfff17664       0x58
 .text.rtc_read
                0xfff17664       0x58 drivers/rtc/librtc.o

.text.nvram_read
                0xfff176bc       0x4c
 .text.nvram_read
                0xfff176bc       0x4c drivers/rtc/librtc.o
                0xfff176bc                nvram_read

.text.nvram_write
                0xfff17708       0x48
 .text.nvram_write
                0xfff17708       0x48 drivers/rtc/librtc.o
                0xfff17708                nvram_write

.text.rtc_get   0xfff17750      0x13c
 .text.rtc_get  0xfff17750      0x13c drivers/rtc/librtc.o
                0xfff17750                rtc_get

.text.rtc_set   0xfff1788c      0x160
 .text.rtc_set  0xfff1788c      0x160 drivers/rtc/librtc.o
                0xfff1788c                rtc_set

.text.rtc_reset
                0xfff179ec       0x2c
 .text.rtc_reset
                0xfff179ec       0x2c drivers/rtc/librtc.o
                0xfff179ec                rtc_reset

.text.rtc_set_watchdog
                0xfff17a18       0x18
 .text.rtc_set_watchdog
                0xfff17a18       0x18 drivers/rtc/librtc.o
                0xfff17a18                rtc_set_watchdog

.text.NS16550_init
                0xfff17a30       0x74
 .text.NS16550_init
                0xfff17a30       0x74 drivers/serial/libserial.o
                0xfff17a30                NS16550_init

.text.NS16550_reinit
                0xfff17aa4       0x78
 .text.NS16550_reinit
                0xfff17aa4       0x78 drivers/serial/libserial.o
                0xfff17aa4                NS16550_reinit

.text.NS16550_putc
                0xfff17b1c       0x24
 .text.NS16550_putc
                0xfff17b1c       0x24 drivers/serial/libserial.o
                0xfff17b1c                NS16550_putc

.text.NS16550_getc
                0xfff17b40       0x30
 .text.NS16550_getc
                0xfff17b40       0x30 drivers/serial/libserial.o
                0xfff17b40                NS16550_getc

.text.NS16550_tstc
                0xfff17b70       0x18
 .text.NS16550_tstc
                0xfff17b70       0x18 drivers/serial/libserial.o
                0xfff17b70                NS16550_tstc

.text.calc_divisor.isra.0
                0xfff17b88       0x20
 .text.calc_divisor.isra.0
                0xfff17b88       0x20 drivers/serial/libserial.o

.text.serial_init
                0xfff17ba8       0x50
 .text.serial_init
                0xfff17ba8       0x50 drivers/serial/libserial.o
                0xfff17ba8                serial_init

.text._serial_putc
                0xfff17bf8       0x60
 .text._serial_putc
                0xfff17bf8       0x60 drivers/serial/libserial.o
                0xfff17bf8                _serial_putc

.text._serial_puts
                0xfff17c58       0x38
 .text._serial_puts
                0xfff17c58       0x38 drivers/serial/libserial.o
                0xfff17c58                _serial_puts

.text._serial_getc
                0xfff17c90       0x40
 .text._serial_getc
                0xfff17c90       0x40 drivers/serial/libserial.o
                0xfff17c90                _serial_getc

.text._serial_tstc
                0xfff17cd0       0x34
 .text._serial_tstc
                0xfff17cd0       0x34 drivers/serial/libserial.o
                0xfff17cd0                _serial_tstc

.text._serial_setbrg
                0xfff17d04       0x50
 .text._serial_setbrg
                0xfff17d04       0x50 drivers/serial/libserial.o
                0xfff17d04                _serial_setbrg

.text.serial_putc
                0xfff17d54        0x8
 .text.serial_putc
                0xfff17d54        0x8 drivers/serial/libserial.o
                0xfff17d54                serial_putc

.text.serial_puts
                0xfff17d5c        0x8
 .text.serial_puts
                0xfff17d5c        0x8 drivers/serial/libserial.o
                0xfff17d5c                serial_puts

.text.serial_getc
                0xfff17d64        0x8
 .text.serial_getc
                0xfff17d64        0x8 drivers/serial/libserial.o
                0xfff17d64                serial_getc

.text.serial_tstc
                0xfff17d6c        0x8
 .text.serial_tstc
                0xfff17d6c        0x8 drivers/serial/libserial.o
                0xfff17d6c                serial_tstc

.text.serial_setbrg
                0xfff17d74        0x8
 .text.serial_setbrg
                0xfff17d74        0x8 drivers/serial/libserial.o
                0xfff17d74                serial_setbrg

.text.rtime_decompress
                0xfff17d7c       0xa4
 .text.rtime_decompress
                0xfff17d7c       0xa4 fs/jffs2/libjffs2.o
                0xfff17d7c                rtime_decompress

.text.rubin_do_decompress
                0xfff17e20       0xf8
 .text.rubin_do_decompress
                0xfff17e20       0xf8 fs/jffs2/libjffs2.o
                0xfff17e20                rubin_do_decompress

.text.dynrubin_decompress
                0xfff17f18       0x50
 .text.dynrubin_decompress
                0xfff17f18       0x50 fs/jffs2/libjffs2.o
                0xfff17f18                dynrubin_decompress

.text.zlib_decompress
                0xfff17f68       0x34
 .text.zlib_decompress
                0xfff17f68       0x34 fs/jffs2/libjffs2.o
                0xfff17f68                zlib_decompress

.text.get_fl_mem_nor
                0xfff17f9c       0x64
 .text.get_fl_mem_nor
                0xfff17f9c       0x64 fs/jffs2/libjffs2.o

.text.get_fl_mem
                0xfff18000       0x68
 .text.get_fl_mem
                0xfff18000       0x68 fs/jffs2/libjffs2.o

.text.get_node_mem
                0xfff18068       0x98
 .text.get_node_mem
                0xfff18068       0x98 fs/jffs2/libjffs2.o

.text.jffs2_1pass_find_inode
                0xfff18100      0x104
 .text.jffs2_1pass_find_inode
                0xfff18100      0x104 fs/jffs2/libjffs2.o

.text.jffs2_1pass_search_inode
                0xfff18204      0x13c
 .text.jffs2_1pass_search_inode
                0xfff18204      0x13c fs/jffs2/libjffs2.o

.text.insert_node
                0xfff18340       0xdc
 .text.insert_node
                0xfff18340       0xdc fs/jffs2/libjffs2.o

.text.jffs2_free_cache
                0xfff1841c       0x7c
 .text.jffs2_free_cache
                0xfff1841c       0x7c fs/jffs2/libjffs2.o
                0xfff1841c                jffs2_free_cache

.text.mkmodestr
                0xfff18498      0x14c
 .text.mkmodestr
                0xfff18498      0x14c fs/jffs2/libjffs2.o
                0xfff18498                mkmodestr

.text.jffs2_1pass_search_list_inodes.constprop.0
                0xfff185e4      0x4ec
 .text.jffs2_1pass_search_list_inodes.constprop.0
                0xfff185e4      0x4ec fs/jffs2/libjffs2.o

.text.jffs2_1pass_rescan_needed
                0xfff18ad0       0x8c
 .text.jffs2_1pass_rescan_needed
                0xfff18ad0       0x8c fs/jffs2/libjffs2.o
                0xfff18ad0                jffs2_1pass_rescan_needed

.text.jffs2_get_list
                0xfff18b5c      0x4a4
 .text.jffs2_get_list
                0xfff18b5c      0x4a4 fs/jffs2/libjffs2.o

.text.jffs2_1pass_ls
                0xfff19000       0x60
 .text.jffs2_1pass_ls
                0xfff19000       0x60 fs/jffs2/libjffs2.o
                0xfff19000                jffs2_1pass_ls

.text.jffs2_1pass_load
                0xfff19060      0x310
 .text.jffs2_1pass_load
                0xfff19060      0x310 fs/jffs2/libjffs2.o
                0xfff19060                jffs2_1pass_load

.text.jffs2_1pass_info
                0xfff19370      0x108
 .text.jffs2_1pass_info
                0xfff19370      0x108 fs/jffs2/libjffs2.o
                0xfff19370                jffs2_1pass_info

.text.fill_code_tables
                0xfff19478       0xd4
 .text.fill_code_tables
                0xfff19478       0xd4 fs/jffs2/libjffs2.o

.text.cramfs_memset
                0xfff1954c       0x24
 .text.cramfs_memset
                0xfff1954c       0x24 fs/jffs2/libjffs2.o
                0xfff1954c                cramfs_memset

.text.init_code_tables
                0xfff19570       0x54
 .text.init_code_tables
                0xfff19570       0x54 fs/jffs2/libjffs2.o

.text.pull_bits
                0xfff195c4       0x68
 .text.pull_bits
                0xfff195c4       0x68 fs/jffs2/libjffs2.o
                0xfff195c4                pull_bits

.text.pull_bit  0xfff1962c       0x44
 .text.pull_bit
                0xfff1962c       0x44 fs/jffs2/libjffs2.o
                0xfff1962c                pull_bit

.text.read_symbol
                0xfff19670       0x9c
 .text.read_symbol
                0xfff19670       0x9c fs/jffs2/libjffs2.o

.text.decompress_huffman
                0xfff1970c      0x168
 .text.decompress_huffman
                0xfff1970c      0x168 fs/jffs2/libjffs2.o

.text.decompress_block
                0xfff19874      0x588
 .text.decompress_block
                0xfff19874      0x588 fs/jffs2/libjffs2.o
                0xfff19874                decompress_block

.text.cyg_crc16
                0xfff19dfc       0x78
 .text.cyg_crc16
                0xfff19dfc       0x78 lib/libgeneric.o
                0xfff19dfc                cyg_crc16

.text.crc32_no_comp
                0xfff19e74      0x134
 .text.crc32_no_comp
                0xfff19e74      0x134 lib/libgeneric.o
                0xfff19e74                crc32_no_comp

.text.crc32     0xfff19fa8       0x28
 .text.crc32    0xfff19fa8       0x28 lib/libgeneric.o
                0xfff19fa8                crc32

.text.crc32_wd  0xfff19fd0        0x4
 .text.crc32_wd
                0xfff19fd0        0x4 lib/libgeneric.o
                0xfff19fd0                crc32_wd

.text.display_options
                0xfff19fd4       0x40
 .text.display_options
                0xfff19fd4       0x40 lib/libgeneric.o
                0xfff19fd4                display_options

.text.print_size
                0xfff1a014      0x190
 .text.print_size
                0xfff1a014      0x190 lib/libgeneric.o
                0xfff1a014                print_size

.text.print_buffer
                0xfff1a1a4      0x1a8
 .text.print_buffer
                0xfff1a1a4      0x1a8 lib/libgeneric.o
                0xfff1a1a4                print_buffer

.text.__div64_32
                0xfff1a34c       0xdc
 .text.__div64_32
                0xfff1a34c       0xdc lib/libgeneric.o
                0xfff1a34c                __div64_32

.text.gzalloc   0xfff1a428       0x10
 .text.gzalloc  0xfff1a428       0x10 lib/libgeneric.o
                0xfff1a428                gzalloc

.text.gzfree    0xfff1a438        0x8
 .text.gzfree   0xfff1a438        0x8 lib/libgeneric.o
                0xfff1a438                gzfree

.text.zunzip    0xfff1a440      0x11c
 .text.zunzip   0xfff1a440      0x11c lib/libgeneric.o
                0xfff1a440                zunzip

.text.gunzip    0xfff1a55c       0xe4
 .text.gunzip   0xfff1a55c       0xe4 lib/libgeneric.o
                0xfff1a55c                gunzip

.text.cmpkey    0xfff1a640       0x14
 .text.cmpkey   0xfff1a640       0x14 lib/libgeneric.o

.text.hcreate_r
                0xfff1a654       0xa4
 .text.hcreate_r
                0xfff1a654       0xa4 lib/libgeneric.o
                0xfff1a654                hcreate_r

.text.hdestroy_r
                0xfff1a6f8       0x80
 .text.hdestroy_r
                0xfff1a6f8       0x80 lib/libgeneric.o
                0xfff1a6f8                hdestroy_r

.text.hsearch_r
                0xfff1a778      0x2a4
 .text.hsearch_r
                0xfff1a778      0x2a4 lib/libgeneric.o
                0xfff1a778                hsearch_r

.text.hdelete_r
                0xfff1aa1c       0x98
 .text.hdelete_r
                0xfff1aa1c       0x98 lib/libgeneric.o
                0xfff1aa1c                hdelete_r

.text.hexport_r
                0xfff1aab4      0x280
 .text.hexport_r
                0xfff1aab4      0x280 lib/libgeneric.o
                0xfff1aab4                hexport_r

.text.himport_r
                0xfff1ad34      0x254
 .text.himport_r
                0xfff1ad34      0x254 lib/libgeneric.o
                0xfff1ad34                himport_r

.text.ldiv      0xfff1af88       0x14
 .text.ldiv     0xfff1af88       0x14 lib/libgeneric.o
                0xfff1af88                ldiv

.text.lmb_add_region
                0xfff1af9c      0x268
 .text.lmb_add_region
                0xfff1af9c      0x268 lib/libgeneric.o

.text.lmb_init  0xfff1b204       0x2c
 .text.lmb_init
                0xfff1b204       0x2c lib/libgeneric.o
                0xfff1b204                lmb_init

.text.lmb_add   0xfff1b230        0x4
 .text.lmb_add  0xfff1b230        0x4 lib/libgeneric.o
                0xfff1b230                lmb_add

.text.lmb_reserve
                0xfff1b234        0x8
 .text.lmb_reserve
                0xfff1b234        0x8 lib/libgeneric.o
                0xfff1b234                lmb_reserve

.text.lmb_overlaps_region
                0xfff1b23c       0x54
 .text.lmb_overlaps_region
                0xfff1b23c       0x54 lib/libgeneric.o
                0xfff1b23c                lmb_overlaps_region

.text.__lmb_alloc_base
                0xfff1b290      0x108
 .text.__lmb_alloc_base
                0xfff1b290      0x108 lib/libgeneric.o
                0xfff1b290                __lmb_alloc_base

.text.lmb_alloc_base
                0xfff1b398       0x50
 .text.lmb_alloc_base
                0xfff1b398       0x50 lib/libgeneric.o
                0xfff1b398                lmb_alloc_base

.text.lmb_alloc
                0xfff1b3e8        0x8
 .text.lmb_alloc
                0xfff1b3e8        0x8 lib/libgeneric.o
                0xfff1b3e8                lmb_alloc

.text.__board_lmb_reserve
                0xfff1b3f0        0x4
 .text.__board_lmb_reserve
                0xfff1b3f0        0x4 lib/libgeneric.o
                0xfff1b3f0                board_lmb_reserve
                0xfff1b3f0                __board_lmb_reserve

.text.string_to_ip
                0xfff1b3f4       0x8c
 .text.string_to_ip
                0xfff1b3f4       0x8c lib/libgeneric.o
                0xfff1b3f4                string_to_ip

.text.qsort     0xfff1b480       0xd4
 .text.qsort    0xfff1b480       0xd4 lib/libgeneric.o
                0xfff1b480                qsort

.text.strncmp   0xfff1b554       0x4c
 .text.strncmp  0xfff1b554       0x4c lib/libgeneric.o
                0xfff1b554                strncmp

.text.strchr    0xfff1b5a0       0x28
 .text.strchr   0xfff1b5a0       0x28 lib/libgeneric.o
                0xfff1b5a0                strchr

.text.strnlen   0xfff1b5c8       0x2c
 .text.strnlen  0xfff1b5c8       0x2c lib/libgeneric.o
                0xfff1b5c8                strnlen

.text.strdup    0xfff1b5f4       0x48
 .text.strdup   0xfff1b5f4       0x48 lib/libgeneric.o
                0xfff1b5f4                strdup

.text.strstr    0xfff1b63c       0x74
 .text.strstr   0xfff1b63c       0x74 lib/libgeneric.o
                0xfff1b63c                strstr

.text.strmhz    0xfff1b6b0       0x70
 .text.strmhz   0xfff1b6b0       0x70 lib/libgeneric.o
                0xfff1b6b0                strmhz

.text.udelay    0xfff1b720       0x44
 .text.udelay   0xfff1b720       0x44 lib/libgeneric.o
                0xfff1b720                udelay

.text.put_dec_trunc
                0xfff1b764       0xf0
 .text.put_dec_trunc
                0xfff1b764       0xf0 lib/libgeneric.o

.text.put_dec   0xfff1b854      0x130
 .text.put_dec  0xfff1b854      0x130 lib/libgeneric.o

.text.string.isra.0
                0xfff1b984      0x194
 .text.string.isra.0
                0xfff1b984      0x194 lib/libgeneric.o

.text.number.isra.0
                0xfff1bb18      0x358
 .text.number.isra.0
                0xfff1bb18      0x358 lib/libgeneric.o

.text.simple_strtoul
                0xfff1be70       0xec
 .text.simple_strtoul
                0xfff1be70       0xec lib/libgeneric.o
                0xfff1be70                simple_strtoul

.text.strict_strtoul
                0xfff1bf5c       0x88
 .text.strict_strtoul
                0xfff1bf5c       0x88 lib/libgeneric.o
                0xfff1bf5c                strict_strtoul

.text.simple_strtol
                0xfff1bfe4       0x38
 .text.simple_strtol
                0xfff1bfe4       0x38 lib/libgeneric.o
                0xfff1bfe4                simple_strtol

.text.simple_strtoull
                0xfff1c01c      0x110
 .text.simple_strtoull
                0xfff1c01c      0x110 lib/libgeneric.o
                0xfff1c01c                simple_strtoull

.text.vsprintf  0xfff1c12c      0x938
 .text.vsprintf
                0xfff1c12c      0x938 lib/libgeneric.o
                0xfff1c12c                vsprintf

.text.sprintf   0xfff1ca64       0x80
 .text.sprintf  0xfff1ca64       0x80 lib/libgeneric.o
                0xfff1ca64                sprintf

.text.panic     0xfff1cae4       0xa0
 .text.panic    0xfff1cae4       0xa0 lib/libgeneric.o
                0xfff1cae4                panic

.text.zcalloc   0xfff1cb84        0x8
 .text.zcalloc  0xfff1cb84        0x8 lib/zlib/libz.o
                0xfff1cb84                zcalloc

.text.zcfree    0xfff1cb8c        0x8
 .text.zcfree   0xfff1cb8c        0x8 lib/zlib/libz.o
                0xfff1cb8c                zcfree

.text.inflate_fast
                0xfff1cb94      0x50c
 .text.inflate_fast
                0xfff1cb94      0x50c lib/zlib/libz.o
                0xfff1cb94                inflate_fast

.text.inflate_table
                0xfff1d0a0      0x490
 .text.inflate_table
                0xfff1d0a0      0x490 lib/zlib/libz.o
                0xfff1d0a0                inflate_table

.text.inflateReset
                0xfff1d530       0x80
 .text.inflateReset
                0xfff1d530       0x80 lib/zlib/libz.o
                0xfff1d530                inflateReset

.text.inflateInit2_
                0xfff1d5b0      0x13c
 .text.inflateInit2_
                0xfff1d5b0      0x13c lib/zlib/libz.o
                0xfff1d5b0                inflateInit2_

.text.inflateEnd
                0xfff1d6ec       0x84
 .text.inflateEnd
                0xfff1d6ec       0x84 lib/zlib/libz.o
                0xfff1d6ec                inflateEnd

.text.adler32   0xfff1d770      0x314
 .text.adler32  0xfff1d770      0x314 lib/zlib/libz.o
                0xfff1d770                adler32

.text.inflate   0xfff1da84     0x1664
 .text.inflate  0xfff1da84     0x1664 lib/zlib/libz.o
                0xfff1da84                inflate

.text.ArpInit   0xfff1f0e8       0x5c
 .text.ArpInit  0xfff1f0e8       0x5c net/libnet.o
                0xfff1f0e8                ArpInit

.text.arp_raw_request
                0xfff1f144       0xe0
 .text.arp_raw_request
                0xfff1f144       0xe0 net/libnet.o
                0xfff1f144                arp_raw_request

.text.ArpRequest
                0xfff1f224       0x84
 .text.ArpRequest
                0xfff1f224       0x84 net/libnet.o
                0xfff1f224                ArpRequest

.text.ArpTimeoutCheck
                0xfff1f2a8       0xa8
 .text.ArpTimeoutCheck
                0xfff1f2a8       0xa8 net/libnet.o
                0xfff1f2a8                ArpTimeoutCheck

.text.ArpReceive
                0xfff1f350      0x230
 .text.ArpReceive
                0xfff1f350      0x230 net/libnet.o
                0xfff1f350                ArpReceive

.text.BootpHandler
                0xfff1f580      0x324
 .text.BootpHandler
                0xfff1f580      0x324 net/libnet.o

.text.BootpRequest
                0xfff1f8a4      0x1a8
 .text.BootpRequest
                0xfff1f8a4      0x1a8 net/libnet.o
                0xfff1f8a4                BootpRequest

.text.BootpTimeout
                0xfff1fa4c       0x64
 .text.BootpTimeout
                0xfff1fa4c       0x64 net/libnet.o

.text.is_valid_ether_addr
                0xfff1fab0       0x4c
 .text.is_valid_ether_addr
                0xfff1fab0       0x4c net/libnet.o

.text.__def_eth_init
                0xfff1fafc        0x8
 .text.__def_eth_init
                0xfff1fafc        0x8 net/libnet.o
                0xfff1fafc                cpu_eth_init

.text.eth_current_changed
                0xfff1fb04       0x80
 .text.eth_current_changed
                0xfff1fb04       0x80 net/libnet.o

.text.eth_parse_enetaddr
                0xfff1fb84       0x7c
 .text.eth_parse_enetaddr
                0xfff1fb84       0x7c net/libnet.o
                0xfff1fb84                eth_parse_enetaddr

.text.eth_getenv_enetaddr
                0xfff1fc00       0x38
 .text.eth_getenv_enetaddr
                0xfff1fc00       0x38 net/libnet.o
                0xfff1fc00                eth_getenv_enetaddr

.text.eth_getenv_enetaddr_by_index
                0xfff1fc38       0x58
 .text.eth_getenv_enetaddr_by_index
                0xfff1fc38       0x58 net/libnet.o
                0xfff1fc38                eth_getenv_enetaddr_by_index

.text.eth_get_dev
                0xfff1fc90       0x2c
 .text.eth_get_dev
                0xfff1fc90       0x2c net/libnet.o
                0xfff1fc90                eth_get_dev

.text.eth_get_dev_index
                0xfff1fcbc       0x3c
 .text.eth_get_dev_index
                0xfff1fcbc       0x3c net/libnet.o
                0xfff1fcbc                eth_get_dev_index

.text.eth_write_hwaddr
                0xfff1fcf8      0x134
 .text.eth_write_hwaddr
                0xfff1fcf8      0x134 net/libnet.o
                0xfff1fcf8                eth_write_hwaddr

.text.eth_register
                0xfff1fe2c       0x8c
 .text.eth_register
                0xfff1fe2c       0x8c net/libnet.o
                0xfff1fe2c                eth_register

.text.eth_initialize
                0xfff1feb8      0x1dc
 .text.eth_initialize
                0xfff1feb8      0x1dc net/libnet.o
                0xfff1feb8                eth_initialize

.text.eth_halt  0xfff20094       0x48
 .text.eth_halt
                0xfff20094       0x48 net/libnet.o
                0xfff20094                eth_halt

.text.eth_send  0xfff200dc       0x58
 .text.eth_send
                0xfff200dc       0x58 net/libnet.o
                0xfff200dc                eth_send

.text.eth_rx    0xfff20134       0x4c
 .text.eth_rx   0xfff20134       0x4c net/libnet.o
                0xfff20134                eth_rx

.text.eth_try_another
                0xfff20180       0x94
 .text.eth_try_another
                0xfff20180       0x94 net/libnet.o
                0xfff20180                eth_try_another

.text.eth_init  0xfff20214       0xd8
 .text.eth_init
                0xfff20214       0xd8 net/libnet.o
                0xfff20214                eth_init

.text.eth_set_current
                0xfff202ec       0xc4
 .text.eth_set_current
                0xfff202ec       0xc4 net/libnet.o
                0xfff202ec                eth_set_current

.text.eth_get_name
                0xfff203b0       0x3c
 .text.eth_get_name
                0xfff203b0       0x3c net/libnet.o
                0xfff203b0                eth_get_name

.text.startAgainTimeout
                0xfff203ec       0x30
 .text.startAgainTimeout
                0xfff203ec       0x30 net/libnet.o

.text.dummy_handler
                0xfff2041c        0x4
 .text.dummy_handler
                0xfff2041c        0x4 net/libnet.o

.text.getenv_IPaddr
                0xfff20420       0x20
 .text.getenv_IPaddr
                0xfff20420       0x20 net/libnet.o

.text.net_auto_load
                0xfff20440       0x90
 .text.net_auto_load
                0xfff20440       0x90 net/libnet.o
                0xfff20440                net_auto_load

.text.net_set_udp_handler
                0xfff204d0       0x38
 .text.net_set_udp_handler
                0xfff204d0       0x38 net/libnet.o
                0xfff204d0                net_set_udp_handler

.text.net_get_arp_handler
                0xfff20508       0x2c
 .text.net_get_arp_handler
                0xfff20508       0x2c net/libnet.o
                0xfff20508                net_get_arp_handler

.text.net_set_arp_handler
                0xfff20534       0x38
 .text.net_set_arp_handler
                0xfff20534       0x38 net/libnet.o
                0xfff20534                net_set_arp_handler

.text.NetSetTimeout
                0xfff2056c       0x4c
 .text.NetSetTimeout
                0xfff2056c       0x4c net/libnet.o
                0xfff2056c                NetSetTimeout

.text.net_clear_handlers
                0xfff205b8       0x34
 .text.net_clear_handlers
                0xfff205b8       0x34 net/libnet.o

.text.NetStartAgain
                0xfff205ec      0x12c
 .text.NetStartAgain
                0xfff205ec      0x12c net/libnet.o
                0xfff205ec                NetStartAgain

.text.NetCksum  0xfff20718       0x4c
 .text.NetCksum
                0xfff20718       0x4c net/libnet.o
                0xfff20718                NetCksum

.text.NetCksumOk
                0xfff20764       0x30
 .text.NetCksumOk
                0xfff20764       0x30 net/libnet.o
                0xfff20764                NetCksumOk

.text.NetReceive
                0xfff20794      0x258
 .text.NetReceive
                0xfff20794      0x258 net/libnet.o
                0xfff20794                NetReceive

.text.NetEthHdrSize
                0xfff209ec       0x50
 .text.NetEthHdrSize
                0xfff209ec       0x50 net/libnet.o
                0xfff209ec                NetEthHdrSize

.text.NetSetEther
                0xfff20a3c       0x8c
 .text.NetSetEther
                0xfff20a3c       0x8c net/libnet.o
                0xfff20a3c                NetSetEther

.text.net_update_ether
                0xfff20ac8       0x78
 .text.net_update_ether
                0xfff20ac8       0x78 net/libnet.o
                0xfff20ac8                net_update_ether

.text.net_set_ip_header
                0xfff20b40       0x84
 .text.net_set_ip_header
                0xfff20b40       0x84 net/libnet.o
                0xfff20b40                net_set_ip_header

.text.net_set_udp_header
                0xfff20bc4       0x90
 .text.net_set_udp_header
                0xfff20bc4       0x90 net/libnet.o
                0xfff20bc4                net_set_udp_header

.text.NetSendUDPPacket
                0xfff20c54       0xf8
 .text.NetSendUDPPacket
                0xfff20c54       0xf8 net/libnet.o
                0xfff20c54                NetSendUDPPacket

.text.copy_filename
                0xfff20d4c       0x5c
 .text.copy_filename
                0xfff20d4c       0x5c net/libnet.o
                0xfff20d4c                copy_filename

.text.ip_to_string
                0xfff20da8       0x44
 .text.ip_to_string
                0xfff20da8       0x44 net/libnet.o
                0xfff20da8                ip_to_string

.text.string_to_VLAN
                0xfff20dec       0x58
 .text.string_to_VLAN
                0xfff20dec       0x58 net/libnet.o
                0xfff20dec                string_to_VLAN

.text.getenv_VLAN
                0xfff20e44       0x20
 .text.getenv_VLAN
                0xfff20e44       0x20 net/libnet.o
                0xfff20e44                getenv_VLAN

.text.NetInitLoop
                0xfff20e64       0xc0
 .text.NetInitLoop
                0xfff20e64       0xc0 net/libnet.o

.text.net_init  0xfff20f24       0x88
 .text.net_init
                0xfff20f24       0x88 net/libnet.o
                0xfff20f24                net_init

.text.NetLoop   0xfff20fac      0x2b4
 .text.NetLoop  0xfff20fac      0x2b4 net/libnet.o
                0xfff20fac                NetLoop

.text.nfs_mount_reply
                0xfff21260       0x98
 .text.nfs_mount_reply
                0xfff21260       0x98 net/libnet.o

.text.nfs_umountall_reply
                0xfff212f8       0x8c
 .text.nfs_umountall_reply
                0xfff212f8       0x8c net/libnet.o

.text.nfs_lookup_reply
                0xfff21384       0x8c
 .text.nfs_lookup_reply
                0xfff21384       0x8c net/libnet.o

.text.nfs_readlink_reply
                0xfff21410       0xd8
 .text.nfs_readlink_reply
                0xfff21410       0xd8 net/libnet.o

.text.basename  0xfff214e8       0x48
 .text.basename
                0xfff214e8       0x48 net/libnet.o

.text.rpc_add_credentials
                0xfff21530       0xb0
 .text.rpc_add_credentials
                0xfff21530       0xb0 net/libnet.o

.text.rpc_req   0xfff215e0       0xdc
 .text.rpc_req  0xfff215e0       0xdc net/libnet.o

.text.rpc_lookup_req
                0xfff216bc       0x5c
 .text.rpc_lookup_req
                0xfff216bc       0x5c net/libnet.o

.text.nfs_mount_req
                0xfff21718       0x94
 .text.nfs_mount_req
                0xfff21718       0x94 net/libnet.o

.text.nfs_umountall_req
                0xfff217ac       0x68
 .text.nfs_umountall_req
                0xfff217ac       0x68 net/libnet.o

.text.nfs_lookup_req
                0xfff21814       0xac
 .text.nfs_lookup_req
                0xfff21814       0xac net/libnet.o

.text.nfs_read_req
                0xfff218c0       0x74
 .text.nfs_read_req
                0xfff218c0       0x74 net/libnet.o

.text.nfs_readlink_req
                0xfff21934       0x5c
 .text.nfs_readlink_req
                0xfff21934       0x5c net/libnet.o

.text.NfsSend   0xfff21990       0xd4
 .text.NfsSend  0xfff21990       0xd4 net/libnet.o

.text.NfsTimeout
                0xfff21a64       0x74
 .text.NfsTimeout
                0xfff21a64       0x74 net/libnet.o

.text.rpc_lookup_reply.isra.0
                0xfff21ad8       0x78
 .text.rpc_lookup_reply.isra.0
                0xfff21ad8       0x78 net/libnet.o

.text.nfs_read_reply.isra.0
                0xfff21b50      0x120
 .text.nfs_read_reply.isra.0
                0xfff21b50      0x120 net/libnet.o

.text.NfsHandler
                0xfff21c70      0x1d8
 .text.NfsHandler
                0xfff21c70      0x1d8 net/libnet.o

.text.NfsStart  0xfff21e48      0x22c
 .text.NfsStart
                0xfff21e48      0x22c net/libnet.o
                0xfff21e48                NfsStart

.text.TftpSend  0xfff22074      0x194
 .text.TftpSend
                0xfff22074      0x194 net/libnet.o

.text.TftpHandler
                0xfff22208      0x320
 .text.TftpHandler
                0xfff22208      0x320 net/libnet.o

.text.TftpTimeout
                0xfff22528       0xac
 .text.TftpTimeout
                0xfff22528       0xac net/libnet.o

.text.TftpStart
                0xfff225d4      0x2e0
 .text.TftpStart
                0xfff225d4      0x2e0 net/libnet.o
                0xfff225d4                TftpStart

.text.bab7xx_get_bus_freq
                0xfff228b4       0x28
 .text.bab7xx_get_bus_freq
                0xfff228b4       0x28 board/eltec/bab7xx/libbab7xx.o
                0xfff228b4                bab7xx_get_bus_freq

.text.bab7xx_get_gclk_freq
                0xfff228dc       0x40
 .text.bab7xx_get_gclk_freq
                0xfff228dc       0x40 board/eltec/bab7xx/libbab7xx.o
                0xfff228dc                bab7xx_get_gclk_freq

.text.checkcpu  0xfff2291c       0x64
 .text.checkcpu
                0xfff2291c       0x64 board/eltec/bab7xx/libbab7xx.o
                0xfff2291c                checkcpu

.text.checkboard
                0xfff22980       0x38
 .text.checkboard
                0xfff22980       0x38 board/eltec/bab7xx/libbab7xx.o
                0xfff22980                checkboard

.text.dram_size
                0xfff229b8       0xac
 .text.dram_size
                0xfff229b8       0xac board/eltec/bab7xx/libbab7xx.o
                0xfff229b8                dram_size

.text.initdram  0xfff22a64        0x4
 .text.initdram
                0xfff22a64        0x4 board/eltec/bab7xx/libbab7xx.o
                0xfff22a64                initdram

.text.after_reloc
                0xfff22a68       0x18
 .text.after_reloc
                0xfff22a68       0x18 board/eltec/bab7xx/libbab7xx.o
                0xfff22a68                after_reloc

.text.do_reset  0xfff22a80       0x2c
 .text.do_reset
                0xfff22a80       0x2c board/eltec/bab7xx/libbab7xx.o
                0xfff22a80                do_reset

.text.board_eth_init
                0xfff22aac        0x4
 .text.board_eth_init
                0xfff22aac        0x4 board/eltec/bab7xx/libbab7xx.o
                0xfff22aac                board_eth_init

.text.write_word.isra.0
                0xfff22ab0       0xdc
 .text.write_word.isra.0
                0xfff22ab0       0xdc board/eltec/bab7xx/libbab7xx.o

.text.flash_get_size
                0xfff22b8c      0x150
 .text.flash_get_size
                0xfff22b8c      0x150 board/eltec/bab7xx/libbab7xx.o
                0xfff22b8c                flash_get_size

.text.flash_init
                0xfff22cdc      0x124
 .text.flash_init
                0xfff22cdc      0x124 board/eltec/bab7xx/libbab7xx.o
                0xfff22cdc                flash_init

.text.flash_print_info
                0xfff22e00      0x234
 .text.flash_print_info
                0xfff22e00      0x234 board/eltec/bab7xx/libbab7xx.o
                0xfff22e00                flash_print_info

.text.flash_erase
                0xfff23034      0x234
 .text.flash_erase
                0xfff23034      0x234 board/eltec/bab7xx/libbab7xx.o
                0xfff23034                flash_erase

.text.write_buff
                0xfff23268      0x1b8
 .text.write_buff
                0xfff23268      0x1b8 board/eltec/bab7xx/libbab7xx.o
                0xfff23268                write_buff

.text.pci_init_board
                0xfff23420      0x180
 .text.pci_init_board
                0xfff23420      0x180 board/eltec/bab7xx/libbab7xx.o
                0xfff23420                pci_init_board

.text.__toupper
                0xfff235a0       0x3c
 .text.__toupper
                0xfff235a0       0x3c board/eltec/bab7xx/libbab7xx.o

.text.media_reg_init
                0xfff235dc       0xe4
 .text.media_reg_init
                0xfff235dc       0xe4 board/eltec/bab7xx/libbab7xx.o

.text.misc_init_r
                0xfff236c0      0x7d8
 .text.misc_init_r
                0xfff236c0      0x7d8 board/eltec/bab7xx/libbab7xx.o
                0xfff236c0                misc_init_r

.text.dc21x4x_select_media
                0xfff23e98      0x224
 .text.dc21x4x_select_media
                0xfff23e98      0x224 board/eltec/bab7xx/libbab7xx.o
                0xfff23e98                dc21x4x_select_media

.text.eepStart  0xfff240bc       0x74
 .text.eepStart
                0xfff240bc       0x74 board/eltec/bab7xx/libbab7xx.o

.text.eepWriteByte
                0xfff24130       0xc8
 .text.eepWriteByte
                0xfff24130       0xc8 board/eltec/bab7xx/libbab7xx.o

.text.eepStop   0xfff241f8       0x88
 .text.eepStop  0xfff241f8       0x88 board/eltec/bab7xx/libbab7xx.o

.text.eepReadAck
                0xfff24280       0x90
 .text.eepReadAck
                0xfff24280       0x90 board/eltec/bab7xx/libbab7xx.o

.text.el_srom_load
                0xfff24310      0x1a4
 .text.el_srom_load
                0xfff24310      0x1a4 board/eltec/bab7xx/libbab7xx.o
                0xfff24310                el_srom_load

.text.el_srom_store
                0xfff244b4       0xcc
 .text.el_srom_store
                0xfff244b4       0xcc board/eltec/bab7xx/libbab7xx.o
                0xfff244b4                el_srom_store

.text.el_srom_checksum
                0xfff24580       0x54
 .text.el_srom_checksum
                0xfff24580       0x54 board/eltec/bab7xx/libbab7xx.o
                0xfff24580                el_srom_checksum

.text.sendto_srom
                0xfff245d4       0x1c
 .text.sendto_srom
                0xfff245d4       0x1c board/eltec/bab7xx/libbab7xx.o

.text.srom_latch
                0xfff245f0       0x48
 .text.srom_latch
                0xfff245f0       0x48 board/eltec/bab7xx/libbab7xx.o

.text.getfrom_srom
                0xfff24638       0x38
 .text.getfrom_srom
                0xfff24638       0x38 board/eltec/bab7xx/libbab7xx.o

.text.srom_address
                0xfff24670       0x68
 .text.srom_address
                0xfff24670       0x68 board/eltec/bab7xx/libbab7xx.o

.text.dc_srom_store
                0xfff246d8      0x1c4
 .text.dc_srom_store
                0xfff246d8      0x1c4 board/eltec/bab7xx/libbab7xx.o
                0xfff246d8                dc_srom_store

.text.l2_cache_enable
                0xfff2489c      0x114
 .text.l2_cache_enable
                0xfff2489c      0x114 board/eltec/bab7xx/libbab7xx.o
                0xfff2489c                l2_cache_enable

.rodata         0xfff249b0     0x8ca1
 *(.eh_frame)
 .eh_frame      0xfff249b0        0x0 arch/powerpc/cpu/74xx_7xx/start.o
 *(SORT_BY_ALIGNMENT(SORT_BY_NAME(.rodata*)))
 .rodata        0xfff249b0       0x30 drivers/rtc/librtc.o
 .rodata        0xfff249e0      0x118 board/eltec/bab7xx/libbab7xx.o
 .rodata.BootpHandler
                0xfff24af8       0x44 net/libnet.o
 .rodata.CSWTCH.21
                0xfff24b3c       0x16 common/libcommon.o
 *fill*         0xfff24b52        0x2 
 .rodata.NfsHandler
                0xfff24b54       0x1c net/libnet.o
 .rodata.NfsSend
                0xfff24b70       0x1c net/libnet.o
 .rodata.TftpSend
                0xfff24b8c       0x1c net/libnet.o
 .rodata.__func__.0
                0xfff24ba8       0x28 common/libcommon.o
 .rodata.__func__.1
                0xfff24bd0       0x1b common/libcommon.o
 *fill*         0xfff24beb        0x1 
 .rodata._ctype
                0xfff24bec      0x100 lib/libgeneric.o
                0xfff24bec                _ctype
 .rodata.binary_test
                0xfff24cec       0x30 common/libcommon.o
 .rodata.crc_table
                0xfff24d1c      0x400 lib/libgeneric.o
 .rodata.default_environment
                0xfff2511c      0x10f common/libcommon.o
                0xfff2511c                default_environment
 *fill*         0xfff2522b        0x1 
 .rodata.dev_print
                0xfff2522c       0x24 disk/libdisk.o
 .rodata.digits.1
                0xfff25250       0x10 lib/libgeneric.o
 .rodata.erase_seq
                0xfff25260        0x4 common/libcommon.o
 .rodata.fdc_issue_cmd
                0xfff25264       0x44 common/libcommon.o
 .rodata.flash_perror
                0xfff252a8       0x44 common/libcommon.o
 .rodata.get_clocks
                0xfff252ec       0x44 arch/powerpc/cpu/74xx_7xx/lib74xx_7xx.o
 .rodata.get_cpu_type
                0xfff25330       0x34 arch/powerpc/cpu/74xx_7xx/lib74xx_7xx.o
 .rodata.get_partition_info_extended
                0xfff25364       0x20 disk/libdisk.o
 .rodata.get_partition_info_iso_verb
                0xfff25384       0x34 disk/libdisk.o
 .rodata.hex_asc
                0xfff253b8       0x11 lib/libgeneric.o
                0xfff253b8                hex_asc
 *fill*         0xfff253c9        0x3 
 .rodata.hid1_74xx_multipliers_x_10
                0xfff253cc       0x80 arch/powerpc/cpu/74xx_7xx/lib74xx_7xx.o
 .rodata.hid1_fx_multipliers_x_10
                0xfff2544c       0x5c arch/powerpc/cpu/74xx_7xx/lib74xx_7xx.o
 .rodata.hid1_multipliers_x_10
                0xfff254a8       0x40 arch/powerpc/cpu/74xx_7xx/lib74xx_7xx.o
 .rodata.huffman_order
                0xfff254e8       0x13 fs/jffs2/libjffs2.o
 *fill*         0xfff254fb        0x1 
 .rodata.inflate
                0xfff254fc       0x74 lib/zlib/libz.o
 .rodata.jffs2_1pass_load
                0xfff25570       0x1c fs/jffs2/libjffs2.o
 .rodata.mon_lengths.2
                0xfff2558c       0x60 fs/jffs2/libjffs2.o
 .rodata.names.0
                0xfff255ec        0x6 lib/libgeneric.o
 *fill*         0xfff255f2        0x2 
 .rodata.pci_class_str
                0xfff255f4       0x48 drivers/pci/libpci.o
 .rodata.pllratio_to_factor.0
                0xfff2563c       0x40 board/eltec/bab7xx/libbab7xx.o
 .rodata.print_part_header
                0xfff2567c       0x20 disk/libdisk.o
 .rodata.readline_into_buffer
                0xfff2569c       0x38 common/libcommon.o
 .rodata.scsi_print_error
                0xfff256d4       0x60 drivers/block/libblock.o
 .rodata.serial_ports
                0xfff25734       0x10 drivers/serial/libserial.o
 .rodata.srec_decode
                0xfff25744       0x28 common/libcommon.o
 .rodata.tab_seq
                0xfff2576c        0x9 common/libcommon.o
 *fill*         0xfff25775        0x3 
 .rodata.vsprintf
                0xfff25778       0x58 lib/libgeneric.o
 .rodata.xyzModem_error
                0xfff257d0       0x20 common/libcommon.o
 .rodata.year_lengths.3
                0xfff257f0        0x8 fs/jffs2/libjffs2.o
 .rodata.crc16_tab
                0xfff257f8      0x200 lib/libgeneric.o
 .rodata.dbase.2
                0xfff259f8       0x40 lib/zlib/libz.o
 .rodata.dext.1
                0xfff25a38       0x40 lib/zlib/libz.o
 .rodata.distfix
                0xfff25a78       0x80 lib/zlib/libz.o
 .rodata.lbase.4
                0xfff25af8       0x3e lib/zlib/libz.o
 .rodata.lenfix
                0xfff25b36      0x800 lib/zlib/libz.o
 .rodata.lext.3
                0xfff26336       0x3e lib/zlib/libz.o
 .rodata.order.0
                0xfff26374       0x26 lib/zlib/libz.o
 .rodata        0xfff2639a        0xe net/libnet.o
 .rodata.AlignmentException.str1.1
                0xfff263a8        0x0 arch/powerpc/cpu/74xx_7xx/lib74xx_7xx.o
                                 0x14 (size before relaxing)
 .rodata.ArpReceive.str1.1
                0xfff263a8        0x0 net/libnet.o
                                 0x14 (size before relaxing)
 .rodata.ArpRequest.str1.1
                0xfff263a8        0x0 net/libnet.o
                                 0x2a (size before relaxing)
 .rodata.ArpTimeoutCheck.str1.1
                0xfff263a8        0x0 net/libnet.o
                                 0x2b (size before relaxing)
 .rodata.BootpHandler.str1.1
                0xfff263a8        0x0 net/libnet.o
                                 0x65 (size before relaxing)
 .rodata.BootpRequest.str1.1
                0xfff263a8        0x0 net/libnet.o
                                 0x14 (size before relaxing)
 .rodata.BootpTimeout.str1.1
                0xfff263a8        0x0 net/libnet.o
                                 0x27 (size before relaxing)
 .rodata.MachineCheckException.str1.1
                0xfff263a8        0x0 arch/powerpc/cpu/74xx_7xx/lib74xx_7xx.o
                                 0xe8 (size before relaxing)
 .rodata.NetInitLoop.str1.1
                0xfff263a8        0x0 net/libnet.o
                                 0x2d (size before relaxing)
 .rodata.NetLoop.str1.1
                0xfff263a8        0x0 net/libnet.o
                                 0xda (size before relaxing)
 .rodata.NetReceive.str1.1
                0xfff263a8        0x0 net/libnet.o
                                 0x1d (size before relaxing)
 .rodata.NetStartAgain.str1.1
                0xfff263a8        0x0 net/libnet.o
                                 0x15 (size before relaxing)
 .rodata.NfsHandler.str1.1
                0xfff263a8        0x0 net/libnet.o
                                 0x70 (size before relaxing)
 .rodata.NfsStart.str1.1
                0xfff263a8        0x0 net/libnet.o
                                0x104 (size before relaxing)
 .rodata.NfsTimeout.str1.1
                0xfff263a8        0x0 net/libnet.o
                                 0x2a (size before relaxing)
 .rodata.ProgramCheckException.str1.1
                0xfff263a8        0x0 arch/powerpc/cpu/74xx_7xx/lib74xx_7xx.o
                                 0x25 (size before relaxing)
 .rodata.SoftEmuException.str1.1
                0xfff263a8        0x0 arch/powerpc/cpu/74xx_7xx/lib74xx_7xx.o
                                 0x1d (size before relaxing)
 .rodata.TftpHandler.str1.1
                0xfff263a8        0x0 net/libnet.o
                                 0x8c (size before relaxing)
 .rodata.TftpSend.str1.1
                0xfff263a8        0x0 net/libnet.o
                                 0x42 (size before relaxing)
 .rodata.TftpStart.str1.1
                0xfff263a8        0x0 net/libnet.o
                                0x13a (size before relaxing)
 .rodata.TftpTimeout.str1.1
                0xfff263a8        0x0 net/libnet.o
                                 0x2d (size before relaxing)
 .rodata.UnknownException.str1.1
                0xfff263a8        0x0 arch/powerpc/cpu/74xx_7xx/lib74xx_7xx.o
                                 0x2a (size before relaxing)
 .rodata._do_env_set.str1.1
                0xfff263a8        0x0 common/libcommon.o
                                0x111 (size before relaxing)
 .rodata._do_help.str1.1
                0xfff263a8        0x0 common/libcommon.o
                                 0x5f (size before relaxing)
 .rodata._exception.str1.1
                0xfff263a8        0x0 arch/powerpc/cpu/74xx_7xx/lib74xx_7xx.o
                                 0x25 (size before relaxing)
 .rodata.arch_lmb_reserve.str1.1
                0xfff263a8        0x0 arch/powerpc/lib/libpowerpc.o
                                 0x2c (size before relaxing)
 .rodata.atapi_issue.str1.1
                0xfff263a8        0x0 common/libcommon.o
                                 0xda (size before relaxing)
 .rodata.atapi_issue_autoreq.str1.1
                0xfff263a8        0x0 common/libcommon.o
                                 0x6d (size before relaxing)
 .rodata.binary_test.str1.1
                0xfff263a8        0x0 common/libcommon.o
                                 0x17 (size before relaxing)
 .rodata.board_init_r.str1.1
                0xfff263a8        0x0 arch/powerpc/lib/libpowerpc.o
                                 0x55 (size before relaxing)
 .rodata.boot_bd_t_linux.str1.1
                0xfff263a8        0x0 arch/powerpc/lib/libpowerpc.o
                                 0x32 (size before relaxing)
 .rodata.boot_cmdline_linux.str1.1
                0xfff263a8        0x0 arch/powerpc/lib/libpowerpc.o
                                 0x22 (size before relaxing)
 .rodata.boot_get_cmdline.str1.1
                0xfff263a8        0x0 common/libcommon.o
                                  0xa (size before relaxing)
 .rodata.boot_get_ramdisk.str1.1
                0xfff263a8        0x0 common/libcommon.o
                                0x10d (size before relaxing)
 .rodata.boot_ramdisk_high.str1.1
                0xfff263a8        0x0 common/libcommon.o
                                 0x54 (size before relaxing)
 .rodata.bootm_load_os.isra.0.str1.1
                0xfff263a8        0x0 common/libcommon.o
                                 0xaf (size before relaxing)
 .rodata.bootm_maybe_autostart.str1.1
                0xfff263a8        0x0 common/libcommon.o
                                 0x31 (size before relaxing)
 .rodata.bootm_start.isra.0.str1.1
                0xfff263a8        0x0 common/libcommon.o
                                0x14f (size before relaxing)
 .rodata.builtin_run_command.str1.1
                0xfff263a8        0x0 common/libcommon.o
                                 0x16 (size before relaxing)
 .rodata.checkboard.str1.1
                0xfff263a8        0x0 board/eltec/bab7xx/libbab7xx.o
                                 0x1a (size before relaxing)
 .rodata.checkcpu.str1.1
                0xfff263a8        0x0 board/eltec/bab7xx/libbab7xx.o
                                 0x21 (size before relaxing)
 .rodata.cmd_process.str1.1
                0xfff263a8        0x0 common/libcommon.o
                                 0x3f (size before relaxing)
 .rodata.cmd_usage.str1.1
                0xfff263a8        0x0 common/libcommon.o
                                 0x36 (size before relaxing)
 .rodata.day_name.1
                0xfff263a8       0x15 fs/jffs2/libjffs2.o
 .rodata.dc21x4x_init.str1.1
                0xfff263bd        0x0 drivers/net/libnet.o
                                 0x5e (size before relaxing)
 .rodata.dc21x4x_initialize.str1.1
                0xfff263bd        0x0 drivers/net/libnet.o
                                 0x9d (size before relaxing)
 .rodata.dc21x4x_recv.str1.1
                0xfff263bd        0x0 drivers/net/libnet.o
                                 0x1a (size before relaxing)
 .rodata.dc21x4x_select_media.str1.1
                0xfff263bd        0x0 board/eltec/bab7xx/libbab7xx.o
                                 0x54 (size before relaxing)
 .rodata.dc21x4x_send.str1.1
                0xfff263bd        0x0 drivers/net/libnet.o
                                 0x52 (size before relaxing)
 .rodata.dc_srom_store.str1.1
                0xfff263bd        0x0 board/eltec/bab7xx/libbab7xx.o
                                 0x21 (size before relaxing)
 .rodata.dev_print.str1.1
                0xfff263bd        0x0 disk/libdisk.o
                                0x15e (size before relaxing)
 .rodata.display_options.str1.1
                0xfff263bd        0x0 lib/libgeneric.o
                                  0x7 (size before relaxing)
 .rodata.do_bdinfo.str1.1
                0xfff263bd        0x0 common/libcommon.o
                                 0xd8 (size before relaxing)
 .rodata.do_bootd.str1.1
                0xfff263bd        0x0 common/libcommon.o
                                  0x8 (size before relaxing)
 .rodata.do_bootelf.str1.1
                0xfff263bd        0x0 common/libcommon.o
                                 0x4f (size before relaxing)
 .rodata.do_bootm.str1.1
                0xfff263bd        0x0 common/libcommon.o
                                 0xc9 (size before relaxing)
 .rodata.do_bootm_netbsd.str1.1
                0xfff263bd        0x0 common/libcommon.o
                                 0x53 (size before relaxing)
 .rodata.do_bootm_rtems.str1.1
                0xfff263bd        0x0 common/libcommon.o
                                 0x39 (size before relaxing)
 .rodata.do_bootm_subcommand.str1.1
                0xfff263bd        0x0 common/libcommon.o
                                 0xa1 (size before relaxing)
 .rodata.do_bootm_vxworks.str1.1
                0xfff263bd        0x0 common/libcommon.o
                                  0xd (size before relaxing)
 .rodata.do_bootvx.str1.1
                0xfff263bd        0x0 common/libcommon.o
                                0x151 (size before relaxing)
 .rodata.do_coninfo.str1.1
                0xfff263bd        0x0 common/libcommon.o
                                 0x32 (size before relaxing)
 .rodata.do_date.str1.1
                0xfff263bd        0x0 common/libcommon.o
                                 0x8d (size before relaxing)
 .rodata.do_diskboot.str1.1
                0xfff263bd        0x0 common/libcommon.o
                                0x142 (size before relaxing)
 .rodata.do_env_default.str1.1
                0xfff263bd        0x0 common/libcommon.o
                                 0x28 (size before relaxing)
 .rodata.do_env_delete.str1.1
                0xfff263bd        0x0 common/libcommon.o
                                 0x15 (size before relaxing)
 .rodata.do_env_edit.str1.1
                0xfff263bd        0x0 common/libcommon.o
                                  0xa (size before relaxing)
 .rodata.do_env_export.str1.1
                0xfff263bd        0x0 common/libcommon.o
                                 0x4a (size before relaxing)
 .rodata.do_env_import.str1.1
                0xfff263bd        0x0 common/libcommon.o
                                0x11f (size before relaxing)
 .rodata.do_env_print.str1.1
                0xfff263bd        0x0 common/libcommon.o
                                 0x3d (size before relaxing)
 .rodata.do_env_save.str1.1
                0xfff263bd        0x0 common/libcommon.o
                                 0x1d (size before relaxing)
 .rodata.do_fdcboot.str1.1
                0xfff263bd        0x0 common/libcommon.o
                                 0xf4 (size before relaxing)
 .rodata.do_flerase.str1.1
                0xfff263bd        0x0 common/libcommon.o
                                 0x78 (size before relaxing)
 .rodata.do_flinfo.str1.1
                0xfff263bd        0x0 common/libcommon.o
                                 0x37 (size before relaxing)
 .rodata.do_go.str1.1
                0xfff263bd        0x0 common/libcommon.o
                                 0x4f (size before relaxing)
 .rodata.do_ide.str1.1
                0xfff263bd        0x0 common/libcommon.o
                                0x147 (size before relaxing)
 .rodata.do_imgextract.str1.1
                0xfff263bd        0x0 common/libcommon.o
                                0x1b1 (size before relaxing)
 .rodata.do_imls.str1.1
                0xfff263bd        0x0 common/libcommon.o
                                 0x26 (size before relaxing)
 .rodata.do_itest.str1.1
                0xfff263bd        0x0 common/libcommon.o
                                 0x1e (size before relaxing)
 .rodata.do_jffs2_fsinfo.str1.1
                0xfff263bd        0x0 common/libcommon.o
                                 0x1b (size before relaxing)
 .rodata.do_jffs2_fsload.str1.1
                0xfff263bd        0x0 common/libcommon.o
                                 0x8f (size before relaxing)
 .rodata.do_jffs2_ls.str1.1
                0xfff263bd        0x0 common/libcommon.o
                                  0x2 (size before relaxing)
 .rodata.do_load_serial.str1.1
                0xfff263bd        0x0 common/libcommon.o
                                 0xcd (size before relaxing)
 .rodata.do_load_serial_bin.str1.1
                0xfff263bd        0x0 common/libcommon.o
                                 0xb2 (size before relaxing)
 .rodata.do_mem_base.str1.1
                0xfff263bd        0x0 common/libcommon.o
                                 0x17 (size before relaxing)
 .rodata.do_mem_cmp.str1.1
                0xfff263bd        0x0 common/libcommon.o
                                 0x67 (size before relaxing)
 .rodata.do_mem_cp.str1.1
                0xfff263bd        0x0 common/libcommon.o
                                 0x29 (size before relaxing)
 .rodata.do_mem_crc.str1.1
                0xfff263bd        0x0 common/libcommon.o
                                 0x25 (size before relaxing)
 .rodata.do_mem_mtest.str1.1
                0xfff263bd        0x0 common/libcommon.o
                                 0x90 (size before relaxing)
 .rodata.do_pci.str1.1
                0xfff263bd        0x0 common/libcommon.o
                                  0x2 (size before relaxing)
 .rodata.do_protect.str1.1
                0xfff263bd        0x0 common/libcommon.o
                                 0x6f (size before relaxing)
 .rodata.do_run.str1.1
                0xfff263bd        0x0 common/libcommon.o
                                 0x1c (size before relaxing)
 .rodata.do_scsi.str1.1
                0xfff263bd        0x0 common/libcommon.o
                                0x113 (size before relaxing)
 .rodata.do_scsiboot.str1.1
                0xfff263bd        0x0 common/libcommon.o
                                0x170 (size before relaxing)
 .rodata.do_source.str1.1
                0xfff263bd        0x0 common/libcommon.o
                                 0x1e (size before relaxing)
 .rodata.do_version.str1.1
                0xfff263bd        0x0 common/libcommon.o
                                 0x48 (size before relaxing)
 .rodata.env_import.str1.1
                0xfff263bd        0x0 common/libcommon.o
                                 0x55 (size before relaxing)
 .rodata.env_print.str1.1
                0xfff263bd        0x0 common/libcommon.o
                                  0x7 (size before relaxing)
 .rodata.eth_current_changed.str1.1
                0xfff263bd        0x0 net/libnet.o
                                  0x7 (size before relaxing)
 .rodata.eth_get_name.str1.1
                0xfff263bd        0x0 net/libnet.o
                                  0x8 (size before relaxing)
 .rodata.eth_getenv_enetaddr_by_index.str1.1
                0xfff263bd        0x0 net/libnet.o
                                 0x10 (size before relaxing)
 .rodata.eth_initialize.str1.1
                0xfff263bd        0x0 net/libnet.o
                                 0xe2 (size before relaxing)
 .rodata.eth_try_another.str1.1
                0xfff263bd        0x0 net/libnet.o
                                  0xd (size before relaxing)
 .rodata.eth_write_hwaddr.str1.1
                0xfff263bd        0x0 net/libnet.o
                                 0x81 (size before relaxing)
 .rodata.external_interrupt.str1.1
                0xfff263bd        0x0 arch/powerpc/cpu/74xx_7xx/lib74xx_7xx.o
                                 0x1c (size before relaxing)
 .rodata.fdc_need_more_output.str1.1
                0xfff263bd        0x0 common/libcommon.o
                                 0x18 (size before relaxing)
 .rodata.fdc_read_data.str1.1
                0xfff263bd        0x0 common/libcommon.o
                                 0x19 (size before relaxing)
 .rodata.flash_erase.str1.1
                0xfff263bd        0x0 board/eltec/bab7xx/libbab7xx.o
                                 0x91 (size before relaxing)
 .rodata.flash_fill_sect_ranges.str1.1
                0xfff263bd        0x0 common/libcommon.o
                                 0xc8 (size before relaxing)
 .rodata.flash_init.str1.1
                0xfff263bd        0x0 board/eltec/bab7xx/libbab7xx.o
                                 0x6c (size before relaxing)
 .rodata.flash_perror.str1.1
                0xfff263bd        0x0 common/libcommon.o
                                0x10c (size before relaxing)
 .rodata.flash_print_info.str1.1
                0xfff263bd        0x0 board/eltec/bab7xx/libbab7xx.o
                                 0xfb (size before relaxing)
 .rodata.flash_sect_erase.str1.1
                0xfff263bd        0x0 common/libcommon.o
                                 0x4b (size before relaxing)
 .rodata.flash_sect_protect.str1.1
                0xfff263bd        0x0 common/libcommon.o
                                 0x1d (size before relaxing)
 .rodata.flash_sect_roundb.str1.1
                0xfff263bd        0x0 common/libcommon.o
                                 0x2c (size before relaxing)
 .rodata.genimg_get_arch_name.str1.1
                0xfff263bd        0x0 common/libcommon.o
                                 0x15 (size before relaxing)
 .rodata.genimg_get_comp_name.str1.1
                0xfff263bd        0x0 common/libcommon.o
                                 0x14 (size before relaxing)
 .rodata.genimg_get_os_name.str1.1
                0xfff263bd        0x0 common/libcommon.o
                                  0xb (size before relaxing)
 .rodata.genimg_get_type_name.str1.1
                0xfff263bd        0x0 common/libcommon.o
                                  0xe (size before relaxing)
 .rodata.genimg_print_size.str1.1
                0xfff263bd        0x0 common/libcommon.o
                                  0xe (size before relaxing)
 .rodata.get_clocks.str1.1
                0xfff263bd        0x0 arch/powerpc/cpu/74xx_7xx/lib74xx_7xx.o
                                 0x23 (size before relaxing)
 .rodata.get_fl_mem.str1.1
                0xfff263bd        0x0 fs/jffs2/libjffs2.o
                                 0x34 (size before relaxing)
 .rodata.get_partition_info_extended.str1.1
                0xfff263bd        0x0 disk/libdisk.o
                                 0x2e (size before relaxing)
 .rodata.get_partition_info_iso_verb.str1.1
                0xfff263bd        0x0 disk/libdisk.o
                                0x1ed (size before relaxing)
 .rodata.get_partition_info_mac.str1.1
                0xfff263bd        0x0 disk/libdisk.o
                                 0x91 (size before relaxing)
 .rodata.getenv_bootm_low.str1.1
                0xfff263bd        0x0 common/libcommon.o
                                  0xa (size before relaxing)
 .rodata.getenv_bootm_mapsize.str1.1
                0xfff263bd        0x0 common/libcommon.o
                                  0xe (size before relaxing)
 .rodata.getenv_bootm_size.str1.1
                0xfff263bd        0x0 common/libcommon.o
                                  0xb (size before relaxing)
 .rodata.getenv_f.str1.1
                0xfff263bd        0x0 common/libcommon.o
                                 0x30 (size before relaxing)
 .rodata.gunzip.str1.1
                0xfff263bd        0x0 lib/libgeneric.o
                                 0x3e (size before relaxing)
 .rodata.hang.str1.1
                0xfff263bd        0x0 arch/powerpc/lib/libpowerpc.o
                                 0x2a (size before relaxing)
 .rodata.hexport_r.str1.1
                0xfff263bd        0x0 lib/libgeneric.o
                                 0x30 (size before relaxing)
 .rodata.himport_r.str1.1
                0xfff263bd        0x0 lib/libgeneric.o
                                 0x31 (size before relaxing)
 .rodata.ide_ident.str1.1
                0xfff263bd        0x0 common/libcommon.o
                                  0xe (size before relaxing)
 .rodata.ide_init.str1.1
                0xfff263bd        0x0 common/libcommon.o
                                 0x2c (size before relaxing)
 .rodata.ide_read.str1.1
                0xfff263bd        0x0 common/libcommon.o
                                 0x65 (size before relaxing)
 .rodata.image_info.str1.1
                0xfff263bd        0x0 common/libcommon.o
                                 0xac (size before relaxing)
 .rodata.image_print_contents.str1.1
                0xfff263bd        0x0 common/libcommon.o
                                 0xdf (size before relaxing)
 .rodata.inflate.str1.1
                0xfff263bd        0x0 lib/zlib/libz.o
                                0x158 (size before relaxing)
 .rodata.inflate_fast.str1.1
                0xfff263bd        0x0 lib/zlib/libz.o
                                 0x50 (size before relaxing)
 .rodata.init_baudrate.str1.1
                0xfff263bd        0x0 arch/powerpc/lib/libpowerpc.o
                                  0x9 (size before relaxing)
 .rodata.init_func_ram.str1.1
                0xfff263bd        0x0 arch/powerpc/lib/libpowerpc.o
                                 0x19 (size before relaxing)
 .rodata.initialise_w83c553f.str1.1
                0xfff263bd        0x0 drivers/pci/libpci.o
                                 0x37 (size before relaxing)
 .rodata.insert_node.str1.1
                0xfff263bd        0x0 fs/jffs2/libjffs2.o
                                 0x2c (size before relaxing)
 .rodata.ip_to_string.str1.1
                0xfff263bd        0x0 net/libnet.o
                                  0xc (size before relaxing)
 .rodata.jffs2_1pass_find_inode.str1.1
                0xfff263bd        0x0 fs/jffs2/libjffs2.o
                                 0x33 (size before relaxing)
 .rodata.jffs2_1pass_info.str1.1
                0xfff263bd        0x0 fs/jffs2/libjffs2.o
                                 0x50 (size before relaxing)
 .rodata.jffs2_1pass_load.str1.1
                0xfff263bd        0x0 fs/jffs2/libjffs2.o
                                 0xa5 (size before relaxing)
 .rodata.jffs2_1pass_ls.str1.1
                0xfff263bd        0x0 fs/jffs2/libjffs2.o
                                 0x2d (size before relaxing)
 .rodata.jffs2_1pass_search_inode.str1.1
                0xfff263bd        0x0 fs/jffs2/libjffs2.o
                                 0x1f (size before relaxing)
 .rodata.jffs2_1pass_search_list_inodes.constprop.0.str1.1
                0xfff263bd        0x0 fs/jffs2/libjffs2.o
                                 0x36 (size before relaxing)
 .rodata.jffs2_get_list.str1.1
                0xfff263bd        0x0 fs/jffs2/libjffs2.o
                                 0xe8 (size before relaxing)
 .rodata.jffs2_part_info.str1.1
                0xfff263bd        0x0 common/libcommon.o
                                 0x43 (size before relaxing)
 .rodata.lmb_alloc_base.str1.1
                0xfff263bd        0x0 lib/libgeneric.o
                                 0x34 (size before relaxing)
 .rodata.load_serial.str1.1
                0xfff263bd        0x0 common/libcommon.o
                                 0x72 (size before relaxing)
 .rodata.load_serial_ymodem.isra.0.str1.1
                0xfff263bd        0x0 common/libcommon.o
                                 0x2f (size before relaxing)
 .rodata.main_loop.str1.1
                0xfff263bd        0x0 common/libcommon.o
                                 0x61 (size before relaxing)
 .rodata.misc_init_r.str1.1
                0xfff263bd        0x0 board/eltec/bab7xx/libbab7xx.o
                                0x3a1 (size before relaxing)
 .rodata.mkmodestr.str1.1
                0xfff263bd        0x0 fs/jffs2/libjffs2.o
                                  0x4 (size before relaxing)
 .rodata.mod_mem.part.0.str1.1
                0xfff263bd        0x0 common/libcommon.o
                                 0x1d (size before relaxing)
 .rodata.mon_name.0
                0xfff263bd       0x24 fs/jffs2/libjffs2.o
 .rodata.mtdparts_init.str1.1
                0xfff263e1        0x0 common/libcommon.o
                                0x10f (size before relaxing)
 .rodata.net_auto_load.str1.1
                0xfff263e1        0x0 net/libnet.o
                                  0xd (size before relaxing)
 .rodata.netboot_common.str1.1
                0xfff263e1        0x0 common/libcommon.o
                                 0x4a (size before relaxing)
 .rodata.nfs_read_reply.isra.0.str1.1
                0xfff263e1        0x0 net/libnet.o
                                  0x4 (size before relaxing)
 .rodata.nfs_readlink_reply.str1.1
                0xfff263e1        0x0 net/libnet.o
                                  0x2 (size before relaxing)
 .rodata.parse_line.str1.1
                0xfff263e1        0x0 common/libcommon.o
                                 0x1f (size before relaxing)
 .rodata.part_mac_read_ddb.str1.1
                0xfff263e1        0x0 disk/libdisk.o
                                 0x29 (size before relaxing)
 .rodata.pci_bus_to_hose.str1.1
                0xfff263e1        0x0 drivers/pci/libpci.o
                                 0x1a (size before relaxing)
 .rodata.pci_cfg_modify.isra.0.str1.1
                0xfff263e1        0x0 common/libcommon.o
                                 0x1d (size before relaxing)
 .rodata.pci_class_str.str1.1
                0xfff263e1        0x0 drivers/pci/libpci.o
                                0x154 (size before relaxing)
 .rodata.pci_header_show.str1.1
                0xfff263e1        0x0 common/libcommon.o
                                0x975 (size before relaxing)
 .rodata.pci_header_show_brief.str1.1
                0xfff263e1        0x0 common/libcommon.o
                                 0x24 (size before relaxing)
 .rodata.pci_hose_bus_to_phys.str1.1
                0xfff263e1        0x0 drivers/pci/libpci.o
                                 0x54 (size before relaxing)
 .rodata.pci_hose_phys_to_bus.str1.1
                0xfff263e1        0x0 drivers/pci/libpci.o
                                 0x54 (size before relaxing)
 .rodata.pciinfo.str1.1
                0xfff263e1        0x0 common/libcommon.o
                                 0xd3 (size before relaxing)
 .rodata.print_backtrace.str1.1
                0xfff263e1     0x7270 arch/powerpc/cpu/74xx_7xx/lib74xx_7xx.o
                                 0x1a (size before relaxing)
 .rodata.print_buffer.str1.1
                0xfff2d651        0x0 lib/libgeneric.o
                                 0x15 (size before relaxing)
 .rodata.print_num.str1.1
                0xfff2d651        0x0 common/libcommon.o
                                 0x10 (size before relaxing)
 .rodata.print_part.str1.1
                0xfff2d651        0x0 disk/libdisk.o
                                 0x28 (size before relaxing)
 .rodata.print_part_dos.str1.1
                0xfff2d651        0x0 disk/libdisk.o
                                 0x35 (size before relaxing)
 .rodata.print_part_header.str1.1
                0xfff2d651        0x0 disk/libdisk.o
                                 0x62 (size before relaxing)
 .rodata.print_part_iso.str1.1
                0xfff2d651        0x0 disk/libdisk.o
                                 0x6a (size before relaxing)
 .rodata.print_part_mac.str1.1
                0xfff2d651        0x0 disk/libdisk.o
                                0x14d (size before relaxing)
 .rodata.print_partition_extended.str1.1
                0xfff2d651        0x0 disk/libdisk.o
                                 0x94 (size before relaxing)
 .rodata.print_size.str1.1
                0xfff2d651        0x0 lib/libgeneric.o
                                 0x1e (size before relaxing)
 .rodata.readline_into_buffer.str1.1
                0xfff2d651        0x0 common/libcommon.o
                                  0x3 (size before relaxing)
 .rodata.rpc_add_credentials.str1.1
                0xfff2d651        0x0 net/libnet.o
                                  0x1 (size before relaxing)
 .rodata.saveenv.str1.1
                0xfff2d651        0x0 common/libcommon.o
                                 0x49 (size before relaxing)
 .rodata.scsi_bus_reset.str1.1
                0xfff2d651        0x0 drivers/block/libblock.o
                                 0x1f (size before relaxing)
 .rodata.scsi_init.str1.1
                0xfff2d651        0x0 common/libcommon.o
                                 0x2d (size before relaxing)
 .rodata.scsi_print_error.str1.1
                0xfff2d651        0x0 drivers/block/libblock.o
                                0x34e (size before relaxing)
 .rodata.scsi_scan.str1.1
                0xfff2d651        0x0 common/libcommon.o
                                 0x2b (size before relaxing)
 .rodata.set_default_env.str1.1
                0xfff2d651        0x0 common/libcommon.o
                                 0x94 (size before relaxing)
 .rodata.setenv.str1.1
                0xfff2d651        0x0 common/libcommon.o
                                  0x7 (size before relaxing)
 .rodata.show_regs.str1.1
                0xfff2d651        0x0 arch/powerpc/cpu/74xx_7xx/lib74xx_7xx.o
                                 0x8b (size before relaxing)
 .rodata.source.str1.1
                0xfff2d651        0x0 common/libcommon.o
                                 0x7e (size before relaxing)
 .rodata.stdio_init.str1.1
                0xfff2d651        0x0 common/libcommon.o
                                  0x7 (size before relaxing)
 .rodata.stdio_print_current_devices.str1.1
                0xfff2d651        0x0 common/libcommon.o
                                 0x74 (size before relaxing)
 .rodata.str1.1
                0xfff2d651        0x0 common/libcommon.o
                               0x20f5 (size before relaxing)
 .rodata.str1.1
                0xfff2d651        0x0 fs/jffs2/libjffs2.o
                                 0x2d (size before relaxing)
 .rodata.string.isra.0.str1.1
                0xfff2d651        0x0 lib/libgeneric.o
                                  0x7 (size before relaxing)
 .rodata.strmhz.str1.1
                0xfff2d651        0x0 lib/libgeneric.o
                                  0xb (size before relaxing)
 .rodata.valid_elf_image.str1.1
                0xfff2d651        0x0 common/libcommon.o
                                 0x52 (size before relaxing)
 .rodata.vsprintf.str1.1
                0xfff2d651        0x0 lib/libgeneric.o
                                  0x7 (size before relaxing)
 .rodata.xyzModem_error.str1.1
                0xfff2d651        0x0 common/libcommon.o
                                 0x98 (size before relaxing)
 .rodata.xyzModem_stream_close.str1.1
                0xfff2d651        0x0 common/libcommon.o
                                 0x4b (size before relaxing)
 .rodata.xyzModem_stream_open.str1.1
                0xfff2d651        0x0 common/libcommon.o
                                  0x2 (size before relaxing)
 .rodata.zunzip.str1.1
                0xfff2d651        0x0 lib/libgeneric.o
                                 0x47 (size before relaxing)

.fini
 *(.fini)

.ctors
 *(.ctors)

.dtors
 *(.dtors)
                0xfff2d700                        . = ((. + 0xff) & 0xffffff00)
                0xfff2d700                        _erotext = .
                [!provide]                        PROVIDE (erotext = .)

.reloc          0xfff2d700     0x1448
 *(.got)
 .got           0xfff2d700     0x1424 arch/powerpc/cpu/74xx_7xx/start.o
                0xfff2eb18                _GLOBAL_OFFSET_TABLE_
                0xfff2eb24                        _GOT2_TABLE_ = .
 *(.got2)
 .got2          0xfff2eb24       0x24 arch/powerpc/cpu/74xx_7xx/start.o
                0xfff2eb48                        _FIXUP_TABLE_ = .
 *(.fixup)
                0x00000009                        __got2_entries = ((_FIXUP_TABLE_ - _GOT2_TABLE_) >> 0x2)
                0x00000000                        __fixup_entries = ((. - _FIXUP_TABLE_) >> 0x2)

.data           0xfff2eb48        0x0
 *(.data)
 *(.data1)
 *(.sdata)
 .sdata         0xfff2eb48        0x0 arch/powerpc/cpu/74xx_7xx/start.o
 *(.sdata2)
 .sdata2        0xfff2eb48        0x0 arch/powerpc/cpu/74xx_7xx/start.o
 *(.dynamic)
                0xfff2eb48                        _edata = .
                [!provide]                        PROVIDE (edata = .)

.branch_lt      0xfff2eb48        0x0
 .branch_lt     0xfff2eb48        0x0 arch/powerpc/cpu/74xx_7xx/start.o

.data.rel.init_sequence
                0xfff2eb48       0x2c
 .data.rel.init_sequence
                0xfff2eb48       0x2c arch/powerpc/lib/libpowerpc.o
                0xfff2eb48                init_sequence

.data.rel.local.cmd_bootm_sub
                0xfff2eb74       0xa8
 .data.rel.local.cmd_bootm_sub
                0xfff2eb74       0xa8 common/libcommon.o

.data.rel.ro.boot_os
                0xfff2ec1c       0x4c
 .data.rel.ro.boot_os
                0xfff2ec1c       0x4c common/libcommon.o

.data.rel.ro.local.weekdays
                0xfff2ec68       0x1c
 .data.rel.ro.local.weekdays
                0xfff2ec68       0x1c common/libcommon.o

.data.rel.ro.local.floppy_type
                0xfff2ec84       0x40
 .data.rel.ro.local.floppy_type
                0xfff2ec84       0x40 common/libcommon.o

.sdata.ide_bus_offset
                0xfff2ecc4        0x4
 .sdata.ide_bus_offset
                0xfff2ecc4        0x4 common/libcommon.o
                0xfff2ecc4                ide_bus_offset

.data.curr_device
                0xfff2ecc8        0x4
 .data.curr_device
                0xfff2ecc8        0x4 common/libcommon.o

.data.rel.ro.local.op_table
                0xfff2eccc       0x68
 .data.rel.ro.local.op_table
                0xfff2eccc       0x68 common/libcommon.o

.data.do_echo   0xfff2ed34        0x4
 .data.do_echo  0xfff2ed34        0x4 common/libcommon.o

.data.dp_last_length
                0xfff2ed38        0x4
 .data.dp_last_length
                0xfff2ed38        0x4 common/libcommon.o

.data.rel.cmd_env_sub
                0xfff2ed3c       0xd8
 .data.rel.cmd_env_sub
                0xfff2ed3c       0xd8 common/libcommon.o

.data.env_id    0xfff2ee14        0x4
 .data.env_id   0xfff2ee14        0x4 common/libcommon.o

.sdata.load_addr
                0xfff2ee18        0x4
 .sdata.load_addr
                0xfff2ee18        0x4 common/libcommon.o
                0xfff2ee18                load_addr

.data.sbrk_base
                0xfff2ee1c        0x4
 .data.sbrk_base
                0xfff2ee1c        0x4 common/libcommon.o

.data.trim_threshold
                0xfff2ee20        0x4
 .data.trim_threshold
                0xfff2ee20        0x4 common/libcommon.o

.data.rel.local.av_
                0xfff2ee24      0x408
 .data.rel.local.av_
                0xfff2ee24      0x408 common/libcommon.o

.sdata.env_name_spec
                0xfff2f22c        0x4
 .sdata.env_name_spec
                0xfff2f22c        0x4 common/libcommon.o
                0xfff2f22c                env_name_spec

.data.rel.ro.local.uimage_comp
                0xfff2f230       0x48
 .data.rel.ro.local.uimage_comp
                0xfff2f230       0x48 common/libcommon.o

.data.rel.ro.local.uimage_type
                0xfff2f278       0xc0
 .data.rel.ro.local.uimage_type
                0xfff2f278       0xc0 common/libcommon.o

.data.rel.ro.local.uimage_os
                0xfff2f338       0x6c
 .data.rel.ro.local.uimage_os
                0xfff2f338       0x6c common/libcommon.o

.data.rel.ro.local.uimage_arch
                0xfff2f3a4       0xfc
 .data.rel.ro.local.uimage_arch
                0xfff2f3a4       0xfc common/libcommon.o

.data.rel.local.stdio_names
                0xfff2f4a0        0xc
 .data.rel.local.stdio_names
                0xfff2f4a0        0xc common/libcommon.o
                0xfff2f4a0                stdio_names

.data.supported
                0xfff2f4ac       0x18
 .data.supported
                0xfff2f4ac       0x18 drivers/net/libnet.o

.data.month_days
                0xfff2f4c4       0x30
 .data.month_days
                0xfff2f4c4       0x30 drivers/rtc/librtc.o

.data.rel.ro.local.compr_names
                0xfff2f4f4       0x1c
 .data.rel.ro.local.compr_names
                0xfff2f4f4       0x1c fs/jffs2/libjffs2.o

.data.first_call.1
                0xfff2f510        0x4
 .data.first_call.1
                0xfff2f510        0x4 net/libnet.o

.sdata.NetOurNativeVLAN
                0xfff2f514        0x2
 .sdata.NetOurNativeVLAN
                0xfff2f514        0x2 net/libnet.o
                0xfff2f514                NetOurNativeVLAN

.sdata.NetOurVLAN
                0xfff2f516        0x2
 .sdata.NetOurVLAN
                0xfff2f516        0x2 net/libnet.o
                0xfff2f516                NetOurVLAN

.sdata.NetBcastAddr
                0xfff2f518        0x6
 .sdata.NetBcastAddr
                0xfff2f518        0x6 net/libnet.o
                0xfff2f518                NetBcastAddr

.data.nfs_offset
                0xfff2f520        0x4
 .data.nfs_offset
                0xfff2f520        0x4 net/libnet.o

.data.TftpBlkSizeOption
                0xfff2f524        0x2
 .data.TftpBlkSizeOption
                0xfff2f524        0x2 net/libnet.o

.data.TftpBlkSize
                0xfff2f526        0x2
 .data.TftpBlkSize
                0xfff2f526        0x2 net/libnet.o

.sdata.TftpRRQTimeoutCountMax
                0xfff2f528        0x4
 .sdata.TftpRRQTimeoutCountMax
                0xfff2f528        0x4 net/libnet.o
                0xfff2f528                TftpRRQTimeoutCountMax

.data.TftpTimeoutCountMax
                0xfff2f52c        0x4
 .data.TftpTimeoutCountMax
                0xfff2f52c        0x4 net/libnet.o

.data.TftpTimeoutMSecs
                0xfff2f530        0x4
 .data.TftpTimeoutMSecs
                0xfff2f530        0x4 net/libnet.o

.sdata.scsi_sym53c8xx_ccf
                0xfff2f534        0x1
 .sdata.scsi_sym53c8xx_ccf
                0xfff2f534        0x1 board/eltec/bab7xx/libbab7xx.o
                0xfff2f534                scsi_sym53c8xx_ccf

.sdata.scsi_max_scsi_id
                0xfff2f538        0x4
 .sdata.scsi_max_scsi_id
                0xfff2f538        0x4 board/eltec/bab7xx/libbab7xx.o
                0xfff2f538                scsi_max_scsi_id

.sdata.scsi_dev_id
                0xfff2f53c        0x2
 .sdata.scsi_dev_id
                0xfff2f53c        0x2 board/eltec/bab7xx/libbab7xx.o
                0xfff2f53c                scsi_dev_id

.sdata.scsi_reset_time
                0xfff2f540        0x4
 .sdata.scsi_reset_time
                0xfff2f540        0x4 board/eltec/bab7xx/libbab7xx.o
                0xfff2f540                scsi_reset_time

.sdata.ata_reset_time
                0xfff2f544        0x4
 .sdata.ata_reset_time
                0xfff2f544        0x4 board/eltec/bab7xx/libbab7xx.o
                0xfff2f544                ata_reset_time
                0xfff2f548                        . = .
                0xfff2f548                        __u_boot_cmd_start = .

.u_boot_cmd     0xfff2f548      0x510
 *(.u_boot_cmd)
 .u_boot_cmd    0xfff2f548      0x510 common/libcommon.o
                0xfff2f548                __u_boot_cmd_bdinfo
                0xfff2f560                __u_boot_cmd_reset
                0xfff2f578                __u_boot_cmd_go
                0xfff2f590                __u_boot_cmd_imls
                0xfff2f5a8                __u_boot_cmd_iminfo
                0xfff2f5c0                __u_boot_cmd_bootd
                0xfff2f5d8                __u_boot_cmd_boot
                0xfff2f5f0                __u_boot_cmd_bootm
                0xfff2f608                __u_boot_cmd_coninfo
                0xfff2f620                __u_boot_cmd_date
                0xfff2f638                __u_boot_cmd_echo
                0xfff2f650                __u_boot_cmd_bootvx
                0xfff2f668                __u_boot_cmd_bootelf
                0xfff2f680                __u_boot_cmd_fdcboot
                0xfff2f698                __u_boot_cmd_protect
                0xfff2f6b0                __u_boot_cmd_erase
                0xfff2f6c8                __u_boot_cmd_flinfo
                0xfff2f6e0                __u_boot_cmd_question_mark
                0xfff2f6f8                __u_boot_cmd_help
                0xfff2f710                __u_boot_cmd_diskboot
                0xfff2f728                __u_boot_cmd_ide
                0xfff2f740                __u_boot_cmd_itest
                0xfff2f758                __u_boot_cmd_fsinfo
                0xfff2f770                __u_boot_cmd_ls
                0xfff2f788                __u_boot_cmd_fsload
                0xfff2f7a0                __u_boot_cmd_loady
                0xfff2f7b8                __u_boot_cmd_loadb
                0xfff2f7d0                __u_boot_cmd_loads
                0xfff2f7e8                __u_boot_cmd_mtest
                0xfff2f800                __u_boot_cmd_loop
                0xfff2f818                __u_boot_cmd_base
                0xfff2f830                __u_boot_cmd_crc32
                0xfff2f848                __u_boot_cmd_cmp
                0xfff2f860                __u_boot_cmd_cp
                0xfff2f878                __u_boot_cmd_mw
                0xfff2f890                __u_boot_cmd_nm
                0xfff2f8a8                __u_boot_cmd_mm
                0xfff2f8c0                __u_boot_cmd_md
                0xfff2f8d8                __u_boot_cmd_sleep
                0xfff2f8f0                __u_boot_cmd_nfs
                0xfff2f908                __u_boot_cmd_tftpboot
                0xfff2f920                __u_boot_cmd_bootp
                0xfff2f938                __u_boot_cmd_run
                0xfff2f950                __u_boot_cmd_setenv
                0xfff2f968                __u_boot_cmd_printenv
                0xfff2f980                __u_boot_cmd_editenv
                0xfff2f998                __u_boot_cmd_env
                0xfff2f9b0                __u_boot_cmd_saveenv
                0xfff2f9c8                __u_boot_cmd_pci
                0xfff2f9e0                __u_boot_cmd_scsiboot
                0xfff2f9f8                __u_boot_cmd_scsi
                0xfff2fa10                __u_boot_cmd_source
                0xfff2fa28                __u_boot_cmd_version
                0xfff2fa40                __u_boot_cmd_imxtract
                0xfff2fa58                        __u_boot_cmd_end = .
                0xfff2fa58                        . = .
                0xfff2fa58                        __start___ex_table = .

__ex_table
 *(__ex_table)
                0xfff2fa58                        __stop___ex_table = .
                0xfff2fb00                        . = ALIGN (0x100)
                0xfff2fb00                        __init_begin = .

.text.init
 *(.text.init)

.data.init
 *(.data.init)
                0xfff2fb00                        . = ALIGN (0x100)
                0xfff2fb00                        __init_end = .
                0xfff2fb00                        __bss_start = .

.bss            0xfff2fb00        0x0
 *(.sbss)
 *(.scommon)
 *(.dynbss)
 *(.bss)
 *(COMMON)
                0xfff2fb00                        . = ALIGN (0x4)
                0xfff2fb00                        __bss_end__ = .
                0xfff2fb00                        _end = .
                [!provide]                        PROVIDE (end = .)
Address of section .text set to 0xfff00000
LOAD arch/powerpc/cpu/74xx_7xx/start.o
START GROUP
LOAD api/libapi.o
LOAD arch/powerpc/cpu/74xx_7xx/lib74xx_7xx.o
LOAD arch/powerpc/lib/libpowerpc.o
LOAD common/libcommon.o
LOAD disk/libdisk.o
LOAD drivers/bios_emulator/libatibiosemu.o
LOAD drivers/block/libblock.o
LOAD drivers/dma/libdma.o
LOAD drivers/fpga/libfpga.o
LOAD drivers/gpio/libgpio.o
LOAD drivers/hwmon/libhwmon.o
LOAD drivers/i2c/libi2c.o
LOAD drivers/input/libinput.o
LOAD drivers/misc/libmisc.o
LOAD drivers/mmc/libmmc.o
LOAD drivers/mtd/libmtd.o
LOAD drivers/mtd/nand/libnand.o
LOAD drivers/mtd/onenand/libonenand.o
LOAD drivers/mtd/spi/libspi_flash.o
LOAD drivers/mtd/ubi/libubi.o
LOAD drivers/net/libnet.o
LOAD drivers/net/phy/libphy.o
LOAD drivers/pci/libpci.o
LOAD drivers/pcmcia/libpcmcia.o
LOAD drivers/power/libpower.o
LOAD drivers/rtc/librtc.o
LOAD drivers/serial/libserial.o
LOAD drivers/spi/libspi.o
LOAD drivers/twserial/libtws.o
LOAD drivers/usb/eth/libusb_eth.o
LOAD drivers/usb/gadget/libusb_gadget.o
LOAD drivers/usb/host/libusb_host.o
LOAD drivers/usb/musb/libusb_musb.o
LOAD drivers/usb/phy/libusb_phy.o
LOAD drivers/usb/ulpi/libusb_ulpi.o
LOAD drivers/video/libvideo.o
LOAD drivers/watchdog/libwatchdog.o
LOAD fs/cramfs/libcramfs.o
LOAD fs/ext4/libext4fs.o
LOAD fs/fat/libfat.o
LOAD fs/fdos/libfdos.o
LOAD fs/jffs2/libjffs2.o
LOAD fs/reiserfs/libreiserfs.o
LOAD fs/ubifs/libubifs.o
LOAD fs/yaffs2/libyaffs2.o
LOAD fs/zfs/libzfs.o
LOAD lib/libfdt/libfdt.o
LOAD lib/libgeneric.o
LOAD lib/lzma/liblzma.o
LOAD lib/lzo/liblzo.o
LOAD lib/zlib/libz.o
LOAD net/libnet.o
LOAD post/libpost.o
LOAD board/eltec/bab7xx/libbab7xx.o
END GROUP
LOAD /Users/ilyabot/Documents/Projects/bab750-experiments/u-boot-lab/arch/powerpc/lib/libgcc.o
OUTPUT(u-boot elf32-powerpc)

.iplt           0xfff2fb00        0x0
 .iplt          0xfff2fb00        0x0 arch/powerpc/cpu/74xx_7xx/start.o

.sbss.monitor_flash_len
                0xfff2fb00        0x4
 .sbss.monitor_flash_len
                0xfff2fb00        0x4 arch/powerpc/lib/libpowerpc.o
                0xfff2fb00                monitor_flash_len

.bss.timestamp  0xfff2fb04        0x4
 .bss.timestamp
                0xfff2fb04        0x4 arch/powerpc/lib/libpowerpc.o

.bss.decrementer_count
                0xfff2fb08        0x4
 .bss.decrementer_count
                0xfff2fb08        0x4 arch/powerpc/lib/libpowerpc.o

.bss.images     0xfff2fb0c      0x12c
 .bss.images    0xfff2fb0c      0x12c common/libcommon.o
                0xfff2fb0c                images

.bss.cmd        0xfff2fc38       0x28
 .bss.cmd       0xfff2fc38       0x28 common/libcommon.o

.bss.ide_dev_desc
                0xfff2fc60       0xe0
 .bss.ide_dev_desc
                0xfff2fc60       0xe0 common/libcommon.o
                0xfff2fc60                ide_dev_desc

.bss.ide_bus_ok
                0xfff2fd40        0x4
 .bss.ide_bus_ok
                0xfff2fd40        0x4 common/libcommon.o

.bss.initialized.2
                0xfff2fd44        0x4
 .bss.initialized.2
                0xfff2fd44        0x4 common/libcommon.o

.sbss.current_mtd_partnum
                0xfff2fd48        0x1
 .sbss.current_mtd_partnum
                0xfff2fd48        0x1 common/libcommon.o
                0xfff2fd48                current_mtd_partnum

.sbss.current_mtd_dev
                0xfff2fd4c        0x4
 .sbss.current_mtd_dev
                0xfff2fd4c        0x4 common/libcommon.o
                0xfff2fd4c                current_mtd_dev

.sbss.send_ptr  0xfff2fd50        0x4
 .sbss.send_ptr
                0xfff2fd50        0x4 common/libcommon.o
                0xfff2fd50                send_ptr

.bss.send_parms
                0xfff2fd54       0x14
 .bss.send_parms
                0xfff2fd54       0x14 common/libcommon.o
                0xfff2fd54                send_parms

.bss.k_data_escape_saved
                0xfff2fd68        0x4
 .bss.k_data_escape_saved
                0xfff2fd68        0x4 common/libcommon.o

.bss.k_data_escape
                0xfff2fd6c        0x4
 .bss.k_data_escape
                0xfff2fd6c        0x4 common/libcommon.o

.bss.bin_start_address
                0xfff2fd70        0x4
 .bss.bin_start_address
                0xfff2fd70        0x4 common/libcommon.o

.bss.os_data_addr_saved
                0xfff2fd74        0x4
 .bss.os_data_addr_saved
                0xfff2fd74        0x4 common/libcommon.o

.bss.os_data_addr
                0xfff2fd78        0x4
 .bss.os_data_addr
                0xfff2fd78        0x4 common/libcommon.o

.bss.os_data_state_saved
                0xfff2fd7c        0x4
 .bss.os_data_state_saved
                0xfff2fd7c        0x4 common/libcommon.o

.bss.os_data_state
                0xfff2fd80        0x4
 .bss.os_data_state
                0xfff2fd80        0x4 common/libcommon.o

.sbss.os_data_char
                0xfff2fd84        0x4
 .sbss.os_data_char
                0xfff2fd84        0x4 common/libcommon.o
                0xfff2fd84                os_data_char

.sbss.os_data_init
                0xfff2fd88        0x4
 .sbss.os_data_init
                0xfff2fd88        0x4 common/libcommon.o
                0xfff2fd88                os_data_init

.bss.a_b        0xfff2fd8c       0x18
 .bss.a_b       0xfff2fd8c       0x18 common/libcommon.o

.sbss.his_quote
                0xfff2fda4        0x1
 .sbss.his_quote
                0xfff2fda4        0x1 common/libcommon.o
                0xfff2fda4                his_quote

.sbss.his_pad_char
                0xfff2fda5        0x1
 .sbss.his_pad_char
                0xfff2fda5        0x1 common/libcommon.o
                0xfff2fda5                his_pad_char

.sbss.his_pad_count
                0xfff2fda8        0x4
 .sbss.his_pad_count
                0xfff2fda8        0x4 common/libcommon.o
                0xfff2fda8                his_pad_count

.sbss.his_eol   0xfff2fdac        0x1
 .sbss.his_eol  0xfff2fdac        0x1 common/libcommon.o
                0xfff2fdac                his_eol

.bss.base_address
                0xfff2fdb0        0x4
 .bss.base_address
                0xfff2fdb0        0x4 common/libcommon.o

.bss.mm_last_size
                0xfff2fdb4        0x4
 .bss.mm_last_size
                0xfff2fdb4        0x4 common/libcommon.o

.bss.mm_last_addr
                0xfff2fdb8        0x4
 .bss.mm_last_addr
                0xfff2fdb8        0x4 common/libcommon.o

.bss.dp_last_size
                0xfff2fdbc        0x4
 .bss.dp_last_size
                0xfff2fdbc        0x4 common/libcommon.o

.bss.dp_last_addr
                0xfff2fdc0        0x4
 .bss.dp_last_addr
                0xfff2fdc0        0x4 common/libcommon.o

.bss.scsi_dev_desc
                0xfff2fdc4     0x3480
 .bss.scsi_dev_desc
                0xfff2fdc4     0x3480 common/libcommon.o

.bss.scsi_curr_dev
                0xfff33244        0x4
 .bss.scsi_curr_dev
                0xfff33244        0x4 common/libcommon.o

.bss.scsi_max_devs
                0xfff33248        0x4
 .bss.scsi_max_devs
                0xfff33248        0x4 common/libcommon.o

.bss.tempbuff   0xfff3324c      0x200
 .bss.tempbuff  0xfff3324c      0x200 common/libcommon.o

.bss.tempccb    0xfff33460       0xa0
 .bss.tempccb   0xfff33460       0xa0 common/libcommon.o

.bss.ctrlc_was_pressed
                0xfff33500        0x4
 .bss.ctrlc_was_pressed
                0xfff33500        0x4 common/libcommon.o

.bss.ctrlc_disabled
                0xfff33504        0x4
 .bss.ctrlc_disabled
                0xfff33504        0x4 common/libcommon.o

.bss.current_mallinfo
                0xfff33508       0x28
 .bss.current_mallinfo
                0xfff33508       0x28 common/libcommon.o

.bss.max_total_mem
                0xfff33530        0x4
 .bss.max_total_mem
                0xfff33530        0x4 common/libcommon.o

.bss.max_sbrked_mem
                0xfff33534        0x4
 .bss.max_sbrked_mem
                0xfff33534        0x4 common/libcommon.o

.bss.top_pad    0xfff33538        0x4
 .bss.top_pad   0xfff33538        0x4 common/libcommon.o

.sbss.mem_malloc_brk
                0xfff3353c        0x4
 .sbss.mem_malloc_brk
                0xfff3353c        0x4 common/libcommon.o
                0xfff3353c                mem_malloc_brk

.sbss.mem_malloc_end
                0xfff33540        0x4
 .sbss.mem_malloc_end
                0xfff33540        0x4 common/libcommon.o
                0xfff33540                mem_malloc_end

.sbss.mem_malloc_start
                0xfff33544        0x4
 .sbss.mem_malloc_start
                0xfff33544        0x4 common/libcommon.o
                0xfff33544                mem_malloc_start

.bss.env_htab   0xfff33548        0xc
 .bss.env_htab  0xfff33548        0xc common/libcommon.o
                0xfff33548                env_htab

.bss.lastcommand.0
                0xfff33554      0x100
 .bss.lastcommand.0
                0xfff33554      0x100 common/libcommon.o

.bss.console_buffer
                0xfff33654      0x101
 .bss.console_buffer
                0xfff33654      0x101 common/libcommon.o
                0xfff33654                console_buffer

.bss.stdio_devices
                0xfff33758        0xc
 .bss.stdio_devices
                0xfff33758        0xc common/libcommon.o
                0xfff33758                stdio_devices

.bss.devs       0xfff33764       0x3c
 .bss.devs      0xfff33764       0x3c common/libcommon.o

.bss.xyz        0xfff337a0      0x43c
 .bss.xyz       0xfff337a0      0x43c common/libcommon.o

.bss.tmpbuf     0xfff33bdc      0x800
 .bss.tmpbuf    0xfff33bdc      0x800 disk/libdisk.o

.bss.scsi_mem_addr
                0xfff343dc        0x4
 .bss.scsi_mem_addr
                0xfff343dc        0x4 drivers/block/libblock.o

.bss.int_stat   0xfff343e0        0xc
 .bss.int_stat  0xfff343e0        0xc drivers/block/libblock.o

.bss.script_error
                0xfff343ec        0x8
 .bss.script_error
                0xfff343ec        0x8 drivers/block/libblock.o

.bss.script_reselection
                0xfff343f4       0x10
 .bss.script_reselection
                0xfff343f4       0x10 drivers/block/libblock.o

.bss.script_complete
                0xfff34404       0x28
 .bss.script_complete
                0xfff34404       0x28 drivers/block/libblock.o

.bss.script_status
                0xfff3442c       0x18
 .bss.script_status
                0xfff3442c       0x18 drivers/block/libblock.o

.bss.script_data_out
                0xfff34444       0x20
 .bss.script_data_out
                0xfff34444       0x20 drivers/block/libblock.o

.bss.script_data_in
                0xfff34464       0x20
 .bss.script_data_in
                0xfff34464       0x20 drivers/block/libblock.o

.bss.script_cmd
                0xfff34484       0x48
 .bss.script_cmd
                0xfff34484       0x48 drivers/block/libblock.o

.bss.script_msg_ext
                0xfff344cc       0x80
 .bss.script_msg_ext
                0xfff344cc       0x80 drivers/block/libblock.o

.bss.script_msgin
                0xfff3454c       0x38
 .bss.script_msgin
                0xfff3454c       0x38 drivers/block/libblock.o

.bss.script_msgout
                0xfff34584       0x20
 .bss.script_msgout
                0xfff34584       0x20 drivers/block/libblock.o

.bss.script_select
                0xfff345a4       0x20
 .bss.script_select
                0xfff345a4       0x20 drivers/block/libblock.o

.bss.script_int_mask
                0xfff345c4        0x1
 .bss.script_int_mask
                0xfff345c4        0x1 drivers/block/libblock.o

.bss.scsi_int_mask
                0xfff345c6        0x2
 .bss.scsi_int_mask
                0xfff345c6        0x2 drivers/block/libblock.o

.bss.rxRingSize
                0xfff345c8        0x1
 .bss.rxRingSize
                0xfff345c8        0x1 drivers/net/libnet.o

.bss.tx_new     0xfff345cc        0x4
 .bss.tx_new    0xfff345cc        0x4 drivers/net/libnet.o

.bss.rx_new     0xfff345d0        0x4
 .bss.rx_new    0xfff345d0        0x4 drivers/net/libnet.o

.bss.tx_ring    0xfff345e0       0x10
 .bss.tx_ring   0xfff345e0       0x10 drivers/net/libnet.o

.bss.rx_ring    0xfff34600       0x40
 .bss.rx_ring   0xfff34600       0x40 drivers/net/libnet.o

.bss.ids.0      0xfff34640       0x10
 .bss.ids.0     0xfff34640       0x10 drivers/pci/libpci.o

.bss.hose_head  0xfff34650        0x4
 .bss.hose_head
                0xfff34650        0x4 drivers/pci/libpci.o

.bss.current_part
                0xfff34654        0x4
 .bss.current_part
                0xfff34654        0x4 fs/jffs2/libjffs2.o

.sbss.errno     0xfff34658        0x4
 .sbss.errno    0xfff34658        0x4 lib/libgeneric.o
                0xfff34658                errno

.bss.NetArpPacketBuf
                0xfff3465c      0x620
 .bss.NetArpPacketBuf
                0xfff3465c      0x620 net/libnet.o
                0xfff3465c                NetArpPacketBuf

.sbss.NetArpTxPacket
                0xfff34c7c        0x4
 .sbss.NetArpTxPacket
                0xfff34c7c        0x4 net/libnet.o
                0xfff34c7c                NetArpTxPacket

.sbss.NetArpWaitTry
                0xfff34c80        0x4
 .sbss.NetArpWaitTry
                0xfff34c80        0x4 net/libnet.o
                0xfff34c80                NetArpWaitTry

.sbss.NetArpWaitTimerStart
                0xfff34c84        0x4
 .sbss.NetArpWaitTimerStart
                0xfff34c84        0x4 net/libnet.o
                0xfff34c84                NetArpWaitTimerStart

.sbss.NetArpWaitTxPacketSize
                0xfff34c88        0x4
 .sbss.NetArpWaitTxPacketSize
                0xfff34c88        0x4 net/libnet.o
                0xfff34c88                NetArpWaitTxPacketSize

.sbss.NetArpWaitPacketMAC
                0xfff34c8c        0x4
 .sbss.NetArpWaitPacketMAC
                0xfff34c8c        0x4 net/libnet.o
                0xfff34c8c                NetArpWaitPacketMAC

.sbss.NetArpWaitReplyIP
                0xfff34c90        0x4
 .sbss.NetArpWaitReplyIP
                0xfff34c90        0x4 net/libnet.o
                0xfff34c90                NetArpWaitReplyIP

.sbss.NetArpWaitPacketIP
                0xfff34c94        0x4
 .sbss.NetArpWaitPacketIP
                0xfff34c94        0x4 net/libnet.o
                0xfff34c94                NetArpWaitPacketIP

.sbss.BootpTry  0xfff34c98        0x4
 .sbss.BootpTry
                0xfff34c98        0x4 net/libnet.o
                0xfff34c98                BootpTry

.sbss.BootpID   0xfff34c9c        0x4
 .sbss.BootpID  0xfff34c9c        0x4 net/libnet.o
                0xfff34c9c                BootpID

.bss.env_changed_id.5
                0xfff34ca0        0x4
 .bss.env_changed_id.5
                0xfff34ca0        0x4 net/libnet.o

.bss.act.4      0xfff34ca4        0x4
 .bss.act.4     0xfff34ca4        0x4 net/libnet.o

.bss.first_failed.3
                0xfff34ca8        0x4
 .bss.first_failed.3
                0xfff34ca8        0x4 net/libnet.o

.bss.index.1    0xfff34cac        0x4
 .bss.index.1   0xfff34cac        0x4 net/libnet.o

.bss.eth_current
                0xfff34cb0        0x4
 .bss.eth_current
                0xfff34cb0        0x4 net/libnet.o

.bss.eth_devices
                0xfff34cb4        0x4
 .bss.eth_devices
                0xfff34cb4        0x4 net/libnet.o

.bss.env_changed_id.0
                0xfff34cb8        0x4
 .bss.env_changed_id.0
                0xfff34cb8        0x4 net/libnet.o

.bss.NetTryCount
                0xfff34cbc        0x4
 .bss.NetTryCount
                0xfff34cbc        0x4 net/libnet.o

.sbss.NetTxPacket
                0xfff34cc0        0x4
 .sbss.NetTxPacket
                0xfff34cc0        0x4 net/libnet.o
                0xfff34cc0                NetTxPacket

.bss.timeDelta  0xfff34cc4        0x4
 .bss.timeDelta
                0xfff34cc4        0x4 net/libnet.o

.bss.timeStart  0xfff34cc8        0x4
 .bss.timeStart
                0xfff34cc8        0x4 net/libnet.o

.bss.timeHandler
                0xfff34ccc        0x4
 .bss.timeHandler
                0xfff34ccc        0x4 net/libnet.o

.bss.arp_packet_handler
                0xfff34cd0        0x4
 .bss.arp_packet_handler
                0xfff34cd0        0x4 net/libnet.o

.bss.udp_packet_handler
                0xfff34cd4        0x4
 .bss.udp_packet_handler
                0xfff34cd4        0x4 net/libnet.o

.bss.NetRxPackets
                0xfff34cd8       0x10
 .bss.NetRxPackets
                0xfff34cd8       0x10 net/libnet.o
                0xfff34cd8                NetRxPackets

.bss.PktBuf     0xfff34ce8     0x1e20
 .bss.PktBuf    0xfff34ce8     0x1e20 net/libnet.o
                0xfff34ce8                PktBuf

.bss.BootFile   0xfff36b08       0x80
 .bss.BootFile  0xfff36b08       0x80 net/libnet.o
                0xfff36b08                BootFile

.bss.NetDevExists
                0xfff36b88        0x4
 .bss.NetDevExists
                0xfff36b88        0x4 net/libnet.o

.bss.NetRestarted
                0xfff36b8c        0x4
 .bss.NetRestarted
                0xfff36b8c        0x4 net/libnet.o

.sbss.NetRestartWrap
                0xfff36b90        0x4
 .sbss.NetRestartWrap
                0xfff36b90        0x4 net/libnet.o
                0xfff36b90                NetRestartWrap

.sbss.net_state
                0xfff36b94        0x4
 .sbss.net_state
                0xfff36b94        0x4 net/libnet.o
                0xfff36b94                net_state

.sbss.NetEtherNullAddr
                0xfff36b98        0x6
 .sbss.NetEtherNullAddr
                0xfff36b98        0x6 net/libnet.o
                0xfff36b98                NetEtherNullAddr

.sbss.NetIPID   0xfff36ba0        0x4
 .sbss.NetIPID  0xfff36ba0        0x4 net/libnet.o
                0xfff36ba0                NetIPID

.sbss.NetRxPacketLen
                0xfff36ba4        0x4
 .sbss.NetRxPacketLen
                0xfff36ba4        0x4 net/libnet.o
                0xfff36ba4                NetRxPacketLen

.sbss.NetRxPacket
                0xfff36ba8        0x4
 .sbss.NetRxPacket
                0xfff36ba8        0x4 net/libnet.o
                0xfff36ba8                NetRxPacket

.sbss.NetServerIP
                0xfff36bac        0x4
 .sbss.NetServerIP
                0xfff36bac        0x4 net/libnet.o
                0xfff36bac                NetServerIP

.sbss.NetOurIP  0xfff36bb0        0x4
 .sbss.NetOurIP
                0xfff36bb0        0x4 net/libnet.o
                0xfff36bb0                NetOurIP

.sbss.NetServerEther
                0xfff36bb4        0x6
 .sbss.NetServerEther
                0xfff36bb4        0x6 net/libnet.o
                0xfff36bb4                NetServerEther

.sbss.NetOurEther
                0xfff36bbc        0x6
 .sbss.NetOurEther
                0xfff36bbc        0x6 net/libnet.o
                0xfff36bbc                NetOurEther

.sbss.NetBootFileXferSize
                0xfff36bc4        0x4
 .sbss.NetBootFileXferSize
                0xfff36bc4        0x4 net/libnet.o
                0xfff36bc4                NetBootFileXferSize

.sbss.NetBootFileSize
                0xfff36bc8        0x2
 .sbss.NetBootFileSize
                0xfff36bc8        0x2 net/libnet.o
                0xfff36bc8                NetBootFileSize

.bss.NetOurRootPath
                0xfff36bcc       0x40
 .bss.NetOurRootPath
                0xfff36bcc       0x40 net/libnet.o
                0xfff36bcc                NetOurRootPath

.bss.NetOurHostName
                0xfff36c0c       0x20
 .bss.NetOurHostName
                0xfff36c0c       0x20 net/libnet.o
                0xfff36c0c                NetOurHostName

.bss.NetOurNISDomain
                0xfff36c2c       0x20
 .bss.NetOurNISDomain
                0xfff36c2c       0x20 net/libnet.o
                0xfff36c2c                NetOurNISDomain

.sbss.NetOurDNSIP
                0xfff36c4c        0x4
 .sbss.NetOurDNSIP
                0xfff36c4c        0x4 net/libnet.o
                0xfff36c4c                NetOurDNSIP

.sbss.NetOurGatewayIP
                0xfff36c50        0x4
 .sbss.NetOurGatewayIP
                0xfff36c50        0x4 net/libnet.o
                0xfff36c50                NetOurGatewayIP

.sbss.NetOurSubnetMask
                0xfff36c54        0x4
 .sbss.NetOurSubnetMask
                0xfff36c54        0x4 net/libnet.o
                0xfff36c54                NetOurSubnetMask

.bss.nfs_path_buff
                0xfff36c58      0x800
 .bss.nfs_path_buff
                0xfff36c58      0x800 net/libnet.o

.bss.nfs_path   0xfff37458        0x4
 .bss.nfs_path  0xfff37458        0x4 net/libnet.o

.bss.nfs_filename
                0xfff3745c        0x4
 .bss.nfs_filename
                0xfff3745c        0x4 net/libnet.o

.bss.default_filename
                0xfff37460       0x4d
 .bss.default_filename
                0xfff37460       0x4d net/libnet.o

.bss.NfsState   0xfff374b0        0x4
 .bss.NfsState  0xfff374b0        0x4 net/libnet.o

.bss.NfsTimeoutCount
                0xfff374b4        0x4
 .bss.NfsTimeoutCount
                0xfff374b4        0x4 net/libnet.o

.bss.NfsOurPort
                0xfff374b8        0x4
 .bss.NfsOurPort
                0xfff374b8        0x4 net/libnet.o

.bss.NfsSrvNfsPort
                0xfff374bc        0x4
 .bss.NfsSrvNfsPort
                0xfff374bc        0x4 net/libnet.o

.bss.NfsSrvMountPort
                0xfff374c0        0x4
 .bss.NfsSrvMountPort
                0xfff374c0        0x4 net/libnet.o

.bss.NfsServerIP
                0xfff374c4        0x4
 .bss.NfsServerIP
                0xfff374c4        0x4 net/libnet.o

.bss.nfs_download_state
                0xfff374c8        0x4
 .bss.nfs_download_state
                0xfff374c8        0x4 net/libnet.o

.bss.filefh     0xfff374cc       0x20
 .bss.filefh    0xfff374cc       0x20 net/libnet.o

.bss.dirfh      0xfff374ec       0x20
 .bss.dirfh     0xfff374ec       0x20 net/libnet.o

.bss.nfs_len    0xfff3750c        0x4
 .bss.nfs_len   0xfff3750c        0x4 net/libnet.o

.bss.rpc_id     0xfff37510        0x4
 .bss.rpc_id    0xfff37510        0x4 net/libnet.o

.bss.fs_mounted
                0xfff37514        0x4
 .bss.fs_mounted
                0xfff37514        0x4 net/libnet.o

.bss.tftp_filename
                0xfff37518       0x80
 .bss.tftp_filename
                0xfff37518       0x80 net/libnet.o

.bss.TftpState  0xfff37598        0x4
 .bss.TftpState
                0xfff37598        0x4 net/libnet.o

.bss.TftpBlockWrapOffset
                0xfff3759c        0x4
 .bss.TftpBlockWrapOffset
                0xfff3759c        0x4 net/libnet.o

.bss.TftpBlockWrap
                0xfff375a0        0x4
 .bss.TftpBlockWrap
                0xfff375a0        0x4 net/libnet.o

.bss.TftpLastBlock
                0xfff375a4        0x4
 .bss.TftpLastBlock
                0xfff375a4        0x4 net/libnet.o

.bss.TftpBlock  0xfff375a8        0x4
 .bss.TftpBlock
                0xfff375a8        0x4 net/libnet.o

.bss.TftpTimeoutCount
                0xfff375ac        0x4
 .bss.TftpTimeoutCount
                0xfff375ac        0x4 net/libnet.o

.bss.TftpOurPort
                0xfff375b0        0x4
 .bss.TftpOurPort
                0xfff375b0        0x4 net/libnet.o

.bss.TftpRemotePort
                0xfff375b4        0x4
 .bss.TftpRemotePort
                0xfff375b4        0x4 net/libnet.o

.bss.TftpRemoteIP
                0xfff375b8        0x4
 .bss.TftpRemoteIP
                0xfff375b8        0x4 net/libnet.o

.bss.flash_info
                0xfff375bc      0x2b8
 .bss.flash_info
                0xfff375bc      0x2b8 board/eltec/bab7xx/libbab7xx.o
                0xfff375bc                flash_info

.bss.local_hose
                0xfff37874       0xe0
 .bss.local_hose
                0xfff37874       0xe0 board/eltec/bab7xx/libbab7xx.o
                0xfff37874                local_hose

.sbss.eltec_board
                0xfff37954        0x4
 .sbss.eltec_board
                0xfff37954        0x4 board/eltec/bab7xx/libbab7xx.o
                0xfff37954                eltec_board

.bss.dc_srom_iobase
                0xfff37958        0x4
 .bss.dc_srom_iobase
                0xfff37958        0x4 board/eltec/bab7xx/libbab7xx.o

.debug_line     0x00000000    0x28a6a
 .debug_line    0x00000000      0x1eb arch/powerpc/cpu/74xx_7xx/start.o
 .debug_line    0x000001eb      0xe41 arch/powerpc/cpu/74xx_7xx/lib74xx_7xx.o
 .debug_line    0x0000102c     0x1208 arch/powerpc/lib/libpowerpc.o
 .debug_line    0x00002234    0x10598 common/libcommon.o
 .debug_line    0x000127cc     0x13b8 disk/libdisk.o
 .debug_line    0x00013b84     0x1342 drivers/block/libblock.o
 .debug_line    0x00014ec6      0x727 drivers/misc/libmisc.o
 .debug_line    0x000155ed      0xd18 drivers/net/libnet.o
 .debug_line    0x00016305     0x1c7a drivers/pci/libpci.o
 .debug_line    0x00017f7f      0x8fc drivers/rtc/librtc.o
 .debug_line    0x0001887b      0x715 drivers/serial/libserial.o
 .debug_line    0x00018f90     0x2447 fs/jffs2/libjffs2.o
 .debug_line    0x0001b3d7     0x41c4 lib/libgeneric.o
 .debug_line    0x0001f59b     0x265d lib/zlib/libz.o
 .debug_line    0x00021bf8     0x3b93 net/libnet.o
 .debug_line    0x0002578b     0x2c44 board/eltec/bab7xx/libbab7xx.o
 .debug_line    0x000283cf      0x69b /Users/ilyabot/Documents/Projects/bab750-experiments/u-boot-lab/arch/powerpc/lib/libgcc.o

.debug_line_str
                0x00000000      0x16b
 .debug_line_str
                0x00000000      0x16b arch/powerpc/cpu/74xx_7xx/start.o
                                 0x62 (size before relaxing)
 .debug_line_str
                0x0000016b        0x0 arch/powerpc/cpu/74xx_7xx/lib74xx_7xx.o
                                 0xc1 (size before relaxing)
 .debug_line_str
                0x0000016b        0x0 arch/powerpc/lib/libpowerpc.o
                                0x16b (size before relaxing)
 .debug_line_str
                0x0000016b        0x0 board/eltec/bab7xx/libbab7xx.o
                                 0x5e (size before relaxing)
 .debug_line_str
                0x0000016b        0x0 /Users/ilyabot/Documents/Projects/bab750-experiments/u-boot-lab/arch/powerpc/lib/libgcc.o
                                0x172 (size before relaxing)

.debug_info     0x00000000    0x47291
 .debug_info    0x00000000       0x25 arch/powerpc/cpu/74xx_7xx/start.o
 .debug_info    0x00000025     0x1432 arch/powerpc/cpu/74xx_7xx/lib74xx_7xx.o
 .debug_info    0x00001457     0x2721 arch/powerpc/lib/libpowerpc.o
 .debug_info    0x00003b78    0x1edb5 common/libcommon.o
 .debug_info    0x0002292d     0x298f disk/libdisk.o
 .debug_info    0x000252bc     0x2086 drivers/block/libblock.o
 .debug_info    0x00027342      0xcf0 drivers/misc/libmisc.o
 .debug_info    0x00028032     0x1da4 drivers/net/libnet.o
 .debug_info    0x00029dd6     0x436e drivers/pci/libpci.o
 .debug_info    0x0002e144      0xbbc drivers/rtc/librtc.o
 .debug_info    0x0002ed00     0x1443 drivers/serial/libserial.o
 .debug_info    0x00030143     0x3bbb fs/jffs2/libjffs2.o
 .debug_info    0x00033cfe     0x4dd6 lib/libgeneric.o
 .debug_info    0x00038ad4     0x1573 lib/zlib/libz.o
 .debug_info    0x0003a047     0x7bc7 net/libnet.o
 .debug_info    0x00041c0e     0x4d70 board/eltec/bab7xx/libbab7xx.o
 .debug_info    0x0004697e      0x913 /Users/ilyabot/Documents/Projects/bab750-experiments/u-boot-lab/arch/powerpc/lib/libgcc.o

.debug_abbrev   0x00000000    0x1071c
 .debug_abbrev  0x00000000       0x14 arch/powerpc/cpu/74xx_7xx/start.o
 .debug_abbrev  0x00000014      0x7c4 arch/powerpc/cpu/74xx_7xx/lib74xx_7xx.o
 .debug_abbrev  0x000007d8      0xdf3 arch/powerpc/lib/libpowerpc.o
 .debug_abbrev  0x000015cb     0x6ffe common/libcommon.o
 .debug_abbrev  0x000085c9      0xaa7 disk/libdisk.o
 .debug_abbrev  0x00009070      0x318 drivers/block/libblock.o
 .debug_abbrev  0x00009388      0x188 drivers/misc/libmisc.o
 .debug_abbrev  0x00009510      0x4f1 drivers/net/libnet.o
 .debug_abbrev  0x00009a01      0xa62 drivers/pci/libpci.o
 .debug_abbrev  0x0000a463      0x37f drivers/rtc/librtc.o
 .debug_abbrev  0x0000a7e2      0x423 drivers/serial/libserial.o
 .debug_abbrev  0x0000ac05      0xacf fs/jffs2/libjffs2.o
 .debug_abbrev  0x0000b6d4     0x1b1c lib/libgeneric.o
 .debug_abbrev  0x0000d1f0      0x442 lib/zlib/libz.o
 .debug_abbrev  0x0000d632     0x1b89 net/libnet.o
 .debug_abbrev  0x0000f1bb     0x1319 board/eltec/bab7xx/libbab7xx.o
 .debug_abbrev  0x000104d4      0x248 /Users/ilyabot/Documents/Projects/bab750-experiments/u-boot-lab/arch/powerpc/lib/libgcc.o

.debug_aranges  0x00000000     0x2020
 .debug_aranges
                0x00000000       0x20 arch/powerpc/cpu/74xx_7xx/start.o
 .debug_aranges
                0x00000020      0x168 arch/powerpc/cpu/74xx_7xx/lib74xx_7xx.o
 .debug_aranges
                0x00000188      0x1e0 arch/powerpc/lib/libpowerpc.o
 .debug_aranges
                0x00000368      0xc18 common/libcommon.o
 .debug_aranges
                0x00000f80      0x108 disk/libdisk.o
 .debug_aranges
                0x00001088       0x88 drivers/block/libblock.o
 .debug_aranges
                0x00001110       0x28 drivers/misc/libmisc.o
 .debug_aranges
                0x00001138       0x60 drivers/net/libnet.o
 .debug_aranges
                0x00001198      0x210 drivers/pci/libpci.o
 .debug_aranges
                0x000013a8       0x88 drivers/rtc/librtc.o
 .debug_aranges
                0x00001430       0xc8 drivers/serial/libserial.o
 .debug_aranges
                0x000014f8      0x148 fs/jffs2/libjffs2.o
 .debug_aranges
                0x00001640      0x3d0 lib/libgeneric.o
 .debug_aranges
                0x00001a10       0x68 lib/zlib/libz.o
 .debug_aranges
                0x00001a78      0x320 net/libnet.o
 .debug_aranges
                0x00001d98      0x1e8 board/eltec/bab7xx/libbab7xx.o
 .debug_aranges
                0x00001f80       0xa0 /Users/ilyabot/Documents/Projects/bab750-experiments/u-boot-lab/arch/powerpc/lib/libgcc.o

.debug_str      0x00000000     0x8416
 .debug_str     0x00000000     0x8416 arch/powerpc/cpu/74xx_7xx/start.o
                                 0x70 (size before relaxing)
 .debug_str     0x00008416        0x0 arch/powerpc/cpu/74xx_7xx/lib74xx_7xx.o
                               0x1224 (size before relaxing)
 .debug_str     0x00008416        0x0 arch/powerpc/lib/libpowerpc.o
                               0x2dd7 (size before relaxing)
 .debug_str     0x00008416        0x0 common/libcommon.o
                               0xe9e8 (size before relaxing)
 .debug_str     0x00008416        0x0 disk/libdisk.o
                               0x141a (size before relaxing)
 .debug_str     0x00008416        0x0 drivers/block/libblock.o
                                0x6ac (size before relaxing)
 .debug_str     0x00008416        0x0 drivers/misc/libmisc.o
                                0x219 (size before relaxing)
 .debug_str     0x00008416        0x0 drivers/net/libnet.o
                                0x780 (size before relaxing)
 .debug_str     0x00008416        0x0 drivers/pci/libpci.o
                               0x1435 (size before relaxing)
 .debug_str     0x00008416        0x0 drivers/rtc/librtc.o
                                0x538 (size before relaxing)
 .debug_str     0x00008416        0x0 drivers/serial/libserial.o
                                0x8b6 (size before relaxing)
 .debug_str     0x00008416        0x0 fs/jffs2/libjffs2.o
                               0x14fb (size before relaxing)
 .debug_str     0x00008416        0x0 lib/libgeneric.o
                               0x273f (size before relaxing)
 .debug_str     0x00008416        0x0 lib/zlib/libz.o
                                0x687 (size before relaxing)
 .debug_str     0x00008416        0x0 net/libnet.o
                               0x4a37 (size before relaxing)
 .debug_str     0x00008416        0x0 board/eltec/bab7xx/libbab7xx.o
                               0x1c19 (size before relaxing)
 .debug_str     0x00008416        0x0 /Users/ilyabot/Documents/Projects/bab750-experiments/u-boot-lab/arch/powerpc/lib/libgcc.o
                                0x3dd (size before relaxing)

.comment        0x00000000       0x18
 .comment       0x00000000       0x18 arch/powerpc/cpu/74xx_7xx/lib74xx_7xx.o
                                 0x7d (size before relaxing)
 .comment       0x00000018        0x0 arch/powerpc/lib/libpowerpc.o
                                 0x96 (size before relaxing)
 .comment       0x00000018        0x0 common/libcommon.o
                                0x3b6 (size before relaxing)
 .comment       0x00000018        0x0 disk/libdisk.o
                                 0x64 (size before relaxing)
 .comment       0x00000018        0x0 drivers/block/libblock.o
                                 0x19 (size before relaxing)
 .comment       0x00000018        0x0 drivers/misc/libmisc.o
                                 0x19 (size before relaxing)
 .comment       0x00000018        0x0 drivers/net/libnet.o
                                 0x19 (size before relaxing)
 .comment       0x00000018        0x0 drivers/pci/libpci.o
                                 0x64 (size before relaxing)
 .comment       0x00000018        0x0 drivers/rtc/librtc.o
                                 0x32 (size before relaxing)
 .comment       0x00000018        0x0 drivers/serial/libserial.o
                                 0x32 (size before relaxing)
 .comment       0x00000018        0x0 fs/jffs2/libjffs2.o
                                 0x7d (size before relaxing)
 .comment       0x00000018        0x0 lib/libgeneric.o
                                0x1a9 (size before relaxing)
 .comment       0x00000018        0x0 lib/zlib/libz.o
                                 0x19 (size before relaxing)
 .comment       0x00000018        0x0 net/libnet.o
                                 0x96 (size before relaxing)
 .comment       0x00000018        0x0 board/eltec/bab7xx/libbab7xx.o
                                 0xaf (size before relaxing)
 .comment       0x00000018        0x0 /Users/ilyabot/Documents/Projects/bab750-experiments/u-boot-lab/arch/powerpc/lib/libgcc.o
                                 0x19 (size before relaxing)

.gnu.attributes
                0x00000000       0x12
 .gnu.attributes
                0x00000000       0x10 common/libcommon.o
 .gnu.attributes
                0x00000010       0x10 disk/libdisk.o
 .gnu.attributes
                0x00000020       0x12 lib/libgeneric.o

.debug_loclists
                0x00000000    0x229c4
 .debug_loclists
                0x00000000      0x37e arch/powerpc/cpu/74xx_7xx/lib74xx_7xx.o
 .debug_loclists
                0x0000037e      0xb06 arch/powerpc/lib/libpowerpc.o
 .debug_loclists
                0x00000e84     0xe491 common/libcommon.o
 .debug_loclists
                0x0000f315      0xe39 disk/libdisk.o
 .debug_loclists
                0x0001014e      0x8cf drivers/block/libblock.o
 .debug_loclists
                0x00010a1d      0x550 drivers/misc/libmisc.o
 .debug_loclists
                0x00010f6d      0x886 drivers/net/libnet.o
 .debug_loclists
                0x000117f3     0x23a3 drivers/pci/libpci.o
 .debug_loclists
                0x00013b96      0x5f0 drivers/rtc/librtc.o
 .debug_loclists
                0x00014186      0x50b drivers/serial/libserial.o
 .debug_loclists
                0x00014691     0x1f5d fs/jffs2/libjffs2.o
 .debug_loclists
                0x000165ee     0x4648 lib/libgeneric.o
 .debug_loclists
                0x0001ac36     0x2674 lib/zlib/libz.o
 .debug_loclists
                0x0001d2aa     0x33f1 net/libnet.o
 .debug_loclists
                0x0002069b     0x1ae1 board/eltec/bab7xx/libbab7xx.o
 .debug_loclists
                0x0002217c      0x848 /Users/ilyabot/Documents/Projects/bab750-experiments/u-boot-lab/arch/powerpc/lib/libgcc.o

.debug_rnglists
                0x00000000     0x2af8
 .debug_rnglists
                0x00000000       0xd7 arch/powerpc/cpu/74xx_7xx/lib74xx_7xx.o
 .debug_rnglists
                0x000000d7      0x176 arch/powerpc/lib/libpowerpc.o
 .debug_rnglists
                0x0000024d      0xfc2 common/libcommon.o
 .debug_rnglists
                0x0000120f      0x117 disk/libdisk.o
 .debug_rnglists
                0x00001326       0x6a drivers/block/libblock.o
 .debug_rnglists
                0x00001390      0x13f drivers/misc/libmisc.o
 .debug_rnglists
                0x000014cf      0x117 drivers/net/libnet.o
 .debug_rnglists
                0x000015e6      0x221 drivers/pci/libpci.o
 .debug_rnglists
                0x00001807       0xcc drivers/rtc/librtc.o
 .debug_rnglists
                0x000018d3       0x8c drivers/serial/libserial.o
 .debug_rnglists
                0x0000195f      0x2d4 fs/jffs2/libjffs2.o
 .debug_rnglists
                0x00001c33      0x508 lib/libgeneric.o
 .debug_rnglists
                0x0000213b       0x91 lib/zlib/libz.o
 .debug_rnglists
                0x000021cc      0x512 net/libnet.o
 .debug_rnglists
                0x000026de      0x370 board/eltec/bab7xx/libbab7xx.o
 .debug_rnglists
                0x00002a4e       0xaa /Users/ilyabot/Documents/Projects/bab750-experiments/u-boot-lab/arch/powerpc/lib/libgcc.o
